0x00105350	17	Atomic_Decrement
0x00105320	11	Atomic_Get
0x00105330	17	Atomic_Increment
0x00105300	9	Atomic_Init
0x00105310	13	Atomic_Set
0x00103b10	79	CRC16_Process
0x000feb30	79	CircBuf_DiscardRead
0x000fec80	71	CircBuf_GetReadBuf
0x000fed20	154	CircBuf_GetReadBufSegments
0x000fecd0	71	CircBuf_GetWriteBuf
0x000fedc0	154	CircBuf_GetWriteBufSegments
0x000fe930	47	CircBuf_Init
0x000feb80	125	CircBuf_Peek
0x000feab0	123	CircBuf_Read
0x000fe8e0	13	CircBuf_ReadAvail
0x000fe960	170	CircBuf_ReadPart
0x000fee60	79	CircBuf_ReleaseReadBuf
0x000feeb0	79	CircBuf_ReleaseWriteBuf
0x000fe900	47	CircBuf_Reset
0x000fec00	123	CircBuf_Write
0x000fe8f0	14	CircBuf_WriteAvail
0x000fea10	158	CircBuf_WritePart
0x00105680	55	Condition_Broadcast
0x001053d0	103	Condition_Destroy
0x00105370	95	Condition_Init
0x00105640	55	Condition_Signal
0x00105510	291	Condition_TryWait
0x00105440	206	Condition_Wait
0x00105780	80	CriticalSection_Destroy
0x001057d0	55	CriticalSection_Enter
0x00105810	44	CriticalSection_Exit
0x001056c0	191	CriticalSection_Init
0x0007c818	215	Debug_Trace
0x00104610	127	DeferredTask_Destroy
0x001045e0	34	DeferredTask_Init
0x00104690	135	DeferredTask_Schedule
0x0007c8ef	215	Error_Trace
0x000ffbe0	144	HandleRemoteNodeEvent
0x0006d0c0	30	JNI_OnLoad
0x0006d304	107	Java_com_line6_amplifi_device_AmplifiDeviceManager_nativeClose
0x0006f971	401	Java_com_line6_amplifi_device_AmplifiDeviceManager_nativeCopyResource
0x00070064	93	Java_com_line6_amplifi_device_AmplifiDeviceManager_nativeDebugEditor
0x0006f4c4	127	Java_com_line6_amplifi_device_AmplifiDeviceManager_nativeEngageTuner
0x0006dbbe	327	Java_com_line6_amplifi_device_AmplifiDeviceManager_nativeGetDeviceSetting
0x0006ee1a	315	Java_com_line6_amplifi_device_AmplifiDeviceManager_nativeGetEditBufferMetaTag
0x0006e29d	438	Java_com_line6_amplifi_device_AmplifiDeviceManager_nativeGetEditBufferParam
0x0006e453	459	Java_com_line6_amplifi_device_AmplifiDeviceManager_nativeGetEditBufferParamGroups
0x0006e61e	586	Java_com_line6_amplifi_device_AmplifiDeviceManager_nativeGetEditBufferParamIDsForGroup
0x0006f149	152	Java_com_line6_amplifi_device_AmplifiDeviceManager_nativeGetEditBufferUri
0x0006d3bf	80	Java_com_line6_amplifi_device_AmplifiDeviceManager_nativeGetFirmwareVersion
0x0006d40f	152	Java_com_line6_amplifi_device_AmplifiDeviceManager_nativeGetFirmwareVersionAsString
0x0006ded0	315	Java_com_line6_amplifi_device_AmplifiDeviceManager_nativeGetModelInfo
0x0006dd05	459	Java_com_line6_amplifi_device_AmplifiDeviceManager_nativeGetModelList
0x0006d53f	152	Java_com_line6_amplifi_device_AmplifiDeviceManager_nativeGetModelName
0x0006d5d7	152	Java_com_line6_amplifi_device_AmplifiDeviceManager_nativeGetOfficialModelName
0x0006f591	233	Java_com_line6_amplifi_device_AmplifiDeviceManager_nativeGetPresetUUID
0x0006d36f	80	Java_com_line6_amplifi_device_AmplifiDeviceManager_nativeGetProductId
0x0006d4a7	152	Java_com_line6_amplifi_device_AmplifiDeviceManager_nativeGetProductName
0x0006fcc9	427	Java_com_line6_amplifi_device_AmplifiDeviceManager_nativeGetResource
0x0006ff8b	217	Java_com_line6_amplifi_device_AmplifiDeviceManager_nativeGetResourceCount
0x0006f80b	358	Java_com_line6_amplifi_device_AmplifiDeviceManager_nativeGetResourceName
0x0006d0de	233	Java_com_line6_amplifi_device_AmplifiDeviceManager_nativeInitialize
0x0006e00b	78	Java_com_line6_amplifi_device_AmplifiDeviceManager_nativeIsEditBufferModified
0x0006f543	78	Java_com_line6_amplifi_device_AmplifiDeviceManager_nativeIsTunerEngaged
0x0006f04f	250	Java_com_line6_amplifi_device_AmplifiDeviceManager_nativeLoadEditBufferFrom
0x0006f31c	329	Java_com_line6_amplifi_device_AmplifiDeviceManager_nativeLoadEditBufferFromDataBuffer
0x0006e868	353	Java_com_line6_amplifi_device_AmplifiDeviceManager_nativeMoveEditBufferItem
0x0006fe74	279	Java_com_line6_amplifi_device_AmplifiDeviceManager_nativeMoveResource
0x0006d276	142	Java_com_line6_amplifi_device_AmplifiDeviceManager_nativeOpen
0x0006ef55	250	Java_com_line6_amplifi_device_AmplifiDeviceManager_nativeSaveEditBufferTo
0x0006f1e1	315	Java_com_line6_amplifi_device_AmplifiDeviceManager_nativeSaveEditBufferToDataBuffer
0x0006da68	342	Java_com_line6_amplifi_device_AmplifiDeviceManager_nativeSetDeviceSetting
0x0006ecbc	350	Java_com_line6_amplifi_device_AmplifiDeviceManager_nativeSetEditBufferMetaTag
0x0006e059	127	Java_com_line6_amplifi_device_AmplifiDeviceManager_nativeSetEditBufferModified
0x0006e0d8	453	Java_com_line6_amplifi_device_AmplifiDeviceManager_nativeSetEditBufferParam
0x0006d7cd	81	Java_com_line6_amplifi_device_AmplifiDeviceManager_nativeSetNotificationDelegate
0x0006e9c9	755	Java_com_line6_amplifi_device_AmplifiDeviceManager_nativeSetPresetBufferMetaData
0x0006fb02	455	Java_com_line6_amplifi_device_AmplifiDeviceManager_nativeSetResource
0x0006f67a	401	Java_com_line6_amplifi_device_AmplifiDeviceManager_nativeSetResourceName
0x0006d81e	81	Java_com_line6_amplifi_device_AmplifiDeviceManager_nativeSetSppDelegate
0x0006f465	95	Java_com_line6_amplifi_device_AmplifiDeviceManager_nativeSetTunerDelegate
0x0006d86f	212	Java_com_line6_amplifi_device_AmplifiDeviceManager_nativeSppInStreamData
0x0006d993	213	Java_com_line6_amplifi_device_AmplifiDeviceManager_nativeSppOutStreamData
0x0006d943	80	Java_com_line6_amplifi_device_AmplifiDeviceManager_nativeSppOutStreamDataCount
0x0006d66f	350	Java_com_line6_amplifi_device_AmplifiDeviceManager_nativeStartFirmwareUpdate
0x0006d1c7	175	Java_com_line6_amplifi_device_AmplifiDeviceManager_nativeTerminate
0x00103b60	12	List_Init
0x00103ba0	23	List_InsertAfter
0x00103bc0	24	List_InsertBefore
0x00103f50	154	List_Merge
0x00103c80	68	List_PopBack
0x00103c10	60	List_PopFront
0x00103c50	42	List_PushBack
0x00103be0	42	List_PushFront
0x00103b70	38	List_Remove
0x00103dc0	392	List_Sort
0x00103ff0	90	List_SortedInsert
0x00103d30	95	List_SpliceAfter
0x00103cd0	95	List_SpliceBefore
0x00103d90	46	List_TransferInit
0x000fe5e0	95	McBspMessage_BindChannelPipeToAddr
0x000fe640	55	McBspMessage_UnbindChannelPipeFromAddr
0x000fe7b0	124	McBspMessaging_CreateDatagramPort
0x000fe680	180	McBspMessaging_CreateStreamPort
0x000fe580	87	McBspMessaging_Destroy
0x000fe830	87	McBspMessaging_DestroyDatagramPort
0x000fe740	98	McBspMessaging_DestroyStreamPort
0x000fe540	23	McBspMessaging_GetMsgRouter
0x000fe560	22	McBspMessaging_GetRouter
0x000fe4f0	78	McBspMessaging_Init
0x00105840	90	MemAlloc
0x001058a0	38	MemFree
0x000ffdc0	67	MsgPortManager_Destroy
0x000ffbc0	18	MsgPortManager_GetFullLocalAddress
0x000ffc70	220	MsgPortManager_Init
0x000ffd50	111	MsgPortManager_Tick
0x000ff810	83	MsgPort_Datagram_Destroy
0x000ff760	171	MsgPort_Datagram_Init
0x000ff870	67	MsgPort_Datagram_Open
0x000ff9e0	220	MsgPort_Datagram_RcvRaw
0x000ff940	160	MsgPort_Datagram_Send
0x000ff8c0	121	MsgPort_Datagram_SendRaw
0x000ffef0	34	MsgPort_Destroy
0x000ffe10	51	MsgPort_Init
0x001001e0	86	MsgPort_PrepareTransportHeader
0x000fffb0	507	MsgPort_Register
0x001001b0	47	MsgPort_Send
0x000fff20	132	MsgPort_SetRemote
0x00101f50	111	MsgPort_Stream_Abort
0x00101ba0	448	MsgPort_Stream_Accept
0x00101b10	99	MsgPort_Stream_Bind
0x001020c0	333	MsgPort_Stream_Close
0x00101d60	482	MsgPort_Stream_Connect
0x00102210	108	MsgPort_Stream_Destroy
0x00101970	402	MsgPort_Stream_Init
0x00101b80	29	MsgPort_Stream_Listen
0x00101fc0	177	MsgPort_Stream_SetAutoFlush
0x00102080	55	MsgPort_Stream_SetHeartbeatTimeout
0x000ffe50	156	MsgPort_Unregister
0x00100680	9	MsgRouter_AddChannel
0x00100720	151	MsgRouter_AddRoutingEntry
0x00100640	64	MsgRouter_Destroy
0x001007c0	37	MsgRouter_GetRoutingInfo
0x00100870	9	MsgRouter_HandleChannelEvent
0x001007f0	113	MsgRouter_HandleChannelInPacket
0x001005d0	108	MsgRouter_Init
0x00100690	144	MsgRouter_RemoveChannel
0x00104720	243	MsgSegmentIter_Read
0x00104820	136	MsgSegmentIter_Skip
0x001022b0	53	MsgTransportHeader_Pack
0x00102280	47	MsgTransportHeader_Unpack
0x00105a10	79	Mutex_Acquire
0x001059a0	103	Mutex_Destroy
0x001058d0	199	Mutex_Init
0x00105ad0	55	Mutex_Release
0x00105a60	111	Mutex_TryAcquire
0x001042c0	241	ObjectPool_Allocate
0x00104270	76	ObjectPool_Destroy
0x001043c0	101	ObjectPool_Free
0x00104210	88	ObjectPool_Init
0x001040f0	135	ObjectPool_InitBase
0x00104180	143	ObjectPool_InitWithMem
0x00105b10	148	PthreadUtils_MakeTimeout
0x001022f0	126	RobustSerialMsgChannel_CompleteInPacket
0x001031b0	61	RobustSerialMsgChannel_Destroy
0x00102950	1530	RobustSerialMsgChannel_ExecTasks
0x00102440	1282	RobustSerialMsgChannel_HandleRxData
0x001031f0	224	RobustSerialMsgChannel_Init
0x00102370	193	RobustSerialMsgChannel_QueueOutMessage
0x00102f50	199	RobustSerialMsgChannel_Start
0x00103020	396	RobustSerialMsgChannel_Stop
0x00105c70	91	Semaphore_Destroy
0x00105bb0	183	Semaphore_Init
0x00105cd0	109	Semaphore_Pend
0x00105d40	103	Semaphore_Post
0x001044a0	72	TaskManager_Destroy
0x001044f0	127	TaskManager_ExecuteTasks
0x00104430	99	TaskManager_Init
0x001045a0	59	TaskManager_WaitAndExecuteTasks
0x00104570	39	TaskManager_WakeUp
0x00106190	143	Thread_Destroy
0x00106260	39	Thread_GetCurrent
0x00106290	47	Thread_GetCurrentID
0x00105e00	338	Thread_Init
0x00105f60	58	Thread_Init_Params
0x001060a0	32	Thread_Interrupt
0x00106220	51	Thread_IsInterrupted
0x001060c0	95	Thread_Join
0x00106320	27	Thread_SetName
0x001062c0	38	Thread_Sleep
0x00105fa0	247	Thread_Start
0x00106120	100	Thread_Stop
0x001062f0	36	Thread_USleep
0x000ff0a0	55	TimerGroup_Destroy
0x000ff040	93	TimerGroup_Init
0x000ff0e0	102	TimerGroup_SetCallbacksActive
0x000ff1d0	90	TimerGroup_UpdateAbsolute
0x000ff150	115	TimerGroup_UpdateRelative
0x000ff2d0	102	Timer_Destroy
0x000ff230	154	Timer_Init
0x000ff610	100	Timer_Restart
0x000ff520	110	Timer_SetCallbackActive
0x000ff460	182	Timer_StartOneShotAbsolute
0x000ff3d0	143	Timer_StartOneShotDelay
0x000ff340	143	Timer_StartPeriodic
0x000ff590	113	Timer_Stop
0x00179e3d	129	_Unwind_Backtrace
0x00179e20	29	_Unwind_DeleteException
0x0017866b	51	_Unwind_FindEnclosingFunction
0x0017b2d8	358	_Unwind_Find_FDE
0x00179c0a	172	_Unwind_ForcedUnwind
0x001785c3	11	_Unwind_GetCFA
0x0017869e	11	_Unwind_GetDataRelBase
0x00178487	78	_Unwind_GetGR
0x00178626	11	_Unwind_GetIP
0x00178631	22	_Unwind_GetIPInfo
0x00178655	11	_Unwind_GetLanguageSpecificData
0x00178660	11	_Unwind_GetRegionStart
0x001786a9	11	_Unwind_GetTextRelBase
0x00179ab4	342	_Unwind_RaiseException
0x00179cb6	168	_Unwind_Resume
0x00179d5e	194	_Unwind_Resume_or_Rethrow
0x001785ce	88	_Unwind_SetGR
0x00178647	14	_Unwind_SetIP
0x000ad838	138	_Z10EndianSwapPvjj
0x0009740c	59	_Z10EndianSwapPvjj6EndianS0_
0x0007d790	167	_Z10NewBooleanP7_JNIEnvh
0x0007da31	164	_Z10NewFloat32P7_JNIEnvf
0x0007dbf0	737	_Z10NewHashMapP7_JNIEnvRK9L6Variant
0x000f2c8b	386	_Z10moveLooperP20A36EditBufferContextb13SFRoutingSlot
0x000f2ab1	474	_Z10moveReverbP20A36EditBufferContextb13SFRoutingSlot
0x000f25c9	1256	_Z10moveVolumeP20A36EditBufferContextb13SFRoutingSlot
0x0007d837	167	_Z11NewInteger8P7_JNIEnva
0x001039d0	49	_Z11RouterTimerP6_Timer
0x000c36b9	35	_Z12IsAeonDevicej
0x0007d8de	160	_Z12NewInteger32P7_JNIEnvi
0x0007d97e	179	_Z12NewInteger64P7_JNIEnvx
0x0007e110	1238	_Z12NewL6VariantP7_JNIEnvP8_jobjectR9L6Variant
0x00105db0	74	_Z12Thread_EntryPv
0x000f1ccc	2301	_Z12slotForGroupP20A36EditBufferContextRK8L6String
0x000bfbfe	184	_Z13CreateFileURIRK8L6StringRS_
0x00091340	163	_Z13SetVersionNumhhhhc
0x00099e03	166	_Z14DeleteListObjsIN5L6UUE12ImageArchive4NodeEEvRSt4listIPT_SaIS5_EE
0x00099cc7	166	_Z14DeleteListObjsIN5L6UUE12ImageArchive5ImageEEvRSt4listIPT_SaIS5_EE
0x000b0733	1815	_Z14L6EdLibDIFReadPKhjR8L6StringRjR9L6VariantS5_
0x0007dad5	283	_Z14NewObjectArrayP7_JNIEnvRK9L6Variant
0x000db1c9	134	_Z14ParamIDToPSKeyPKc
0x000c36dc	44	_Z15DeviceHasLooperjj
0x000ce90b	62	_Z15IsAmplifiDevicej
0x000b00c2	1649	_Z15L6EdLibDIFWriteRK9L6VariantS1_PKcjS3_S3_PKvjR8L6Buffer
0x00071756	79	_Z15L6_SAFE_SPRINTFPcjPKcz
0x00091ad0	84	_Z15ServiceModeNamej
0x0007d44a	142	_Z15VariantTypeNameRK9L6Variant
0x00082d16	238	_Z17PosixErrorToL6Errii
0x000a96e2	212	_Z17ShouldUpdateImagePN5L6UUE9ImageInfoEPNS_12UpdateEngine9ImageInfoERNS2_13UpdateOptionsE
0x0007d4d8	584	_Z17VariantDataStringRK9L6Variant
0x000dad7f	158	_Z18GetGuitarProcEntrybiPPKcS1_S1_
0x0006c2f1	60	_Z18L6GetUtf8ByteCountPKc
0x0009eb1b	309	_Z19DoStructTransactionI5EmptyN5L6UUE12DeviceResultEENS1_9UUEResultERNS1_19UpdateDevice_TypeIOEP8IOStreamNS1_13UpdateCommandEPT_PT0_
0x0009e9c0	309	_Z19DoStructTransactionI5EmptyN5L6UUE12ProtocolInfoEENS1_9UUEResultERNS1_19UpdateDevice_TypeIOEP8IOStreamNS1_13UpdateCommandEPT_PT0_
0x0009ec50	309	_Z19DoStructTransactionI5EmptyN5L6UUE7DevInfoEENS1_9UUEResultERNS1_19UpdateDevice_TypeIOEP8IOStreamNS1_13UpdateCommandEPT_PT0_
0x0009efef	309	_Z19DoStructTransactionIN5L6UUE11UpdateChunkENS0_12DeviceResultEENS0_9UUEResultERNS0_19UpdateDevice_TypeIOEP8IOStreamNS0_13UpdateCommandEPT_PT0_
0x0009eeba	309	_Z19DoStructTransactionIN5L6UUE16UpdateParametersEjENS0_9UUEResultERNS0_19UpdateDevice_TypeIOEP8IOStreamNS0_13UpdateCommandEPT_PT0_
0x0009f124	309	_Z19DoStructTransactionIN5L6UUE8OptionalIjEENS0_12DeviceResultEENS0_9UUEResultERNS0_19UpdateDevice_TypeIOEP8IOStreamNS0_13UpdateCommandEPT_PT0_
0x0009f295	309	_Z19DoStructTransactionIjN5L6UUE12DeviceResultEENS0_9UUEResultERNS0_19UpdateDevice_TypeIOEP8IOStreamNS0_13UpdateCommandEPT_PT0_
0x0009ed85	309	_Z19DoStructTransactionIjN5L6UUE9ImageInfoEENS0_9UUEResultERNS0_19UpdateDevice_TypeIOEP8IOStreamNS0_13UpdateCommandEPT_PT0_
0x000daec6	265	_Z19GroupIDToSlotSymbolbPKcb
0x000b0e4a	393	_Z19L6EdLibDIFGetSchemaPKhjR8L6StringRj
0x0008bfdc	191	_Z19MessagePortModeName9ePortMode
0x000db439	439	_Z19ModelIDToEffectTypePKc
0x000dae1d	169	_Z19SlotSymbolToGroupIDbPKc
0x00103ac0	76	_Z20GetSecondsSinceEpochv
0x000db30b	169	_Z20ParamIDToSysParamKeyPKc
0x000fac3f	53	_Z21TMFSHandshakeCallbackPv29FirmwareServiceCallbackReasoni
0x00073ab8	191	_Z22IsLine6DeviceSupportedR9L6Variant
0x000913e3	269	_Z22L6StringToL6VersionIntRK8L6String
0x000db3b4	133	_Z22ParamIDToSysSettingKeyPKc
0x000dad5e	33	_Z23GetNumGuitarProcEntriesb
0x000db24f	188	_Z24PSKeyToParamIDandGroupIDiPPKcS1_Pi
0x000dafcf	338	_Z26GetDSPSlotForGroupAndParambPKcS0_R8L6StringS2_b
0x000db121	168	_Z26GetGroupForDSPSlotAndParambPKcS0_PS0_S1_
0x00073b77	88	_Z27TranslateIdToMaxChannelSizej
0x000da729	197	_Z31convertA36TunerValueToNoteCentsffRiRf
0x000f2e0d	1294	_Z6moveFXiP20A36EditBufferContextb13SFRoutingSlot
0x000b2597	95	_Z7HashKeyI8L6StringEjRKT_
0x000b71fd	322	_Z7HashKeyI9L6VariantEjRKT_
0x000b25f6	10	_Z7HashKeyIjEjRKT_
0x000c177c	95	_Z8CRC32_bsPKvj
0x000bf85e	928	_Z8ParseURIRK8L6StringR12L6DictionaryIS_9L6VariantE
0x0007ded1	575	_Z9NewObjectP7_JNIEnvRK9L6Variant
0x0007d720	112	_Z9NewStringP7_JNIEnvPKc
0x00104f00	52	_ZN10BspChannel12SetConnectedEv
0x001051a0	289	_ZN10BspChannel14OutChannelTaskEv
0x00104b50	445	_ZN10BspChannel15QueueInFunctionEP15IMsgChannelPipeP17PipeScatterGather
0x00104f40	52	_ZN10BspChannel15SetDisconnectedEv
0x00104d60	164	_ZN10BspChannel16QueueOutFunctionEP10MsgChannelP9MsgPacket
0x00104e50	110	_ZN10BspChannel20InPacketDoneFunctionEP10MsgChannelP16MsgChannelPacketi
0x00105040	343	_ZN10BspChannel4BindEP9BspRoutertj
0x00104f80	191	_ZN10BspChannel6UnbindEP9BspRouter
0x001049b0	404	_ZN10BspChannelC1EP15IMsgChannelPipePKci
0x001049b0	404	_ZN10BspChannelC2EP15IMsgChannelPipePKci
0x00104970	56	_ZN10BspChannelD0Ev
0x001048b0	192	_ZN10BspChannelD1Ev
0x001048b0	192	_ZN10BspChannelD2Ev
0x0009ac36	218	_ZN10BufferBaseIhh11Alloc_BasicE10ReAllocateEj
0x0009ccea	11	_ZN10BufferBaseIhh11Alloc_BasicE11GetCapacityEv
0x0009a384	44	_ZN10BufferBaseIhh11Alloc_BasicE11SetCapacityEj
0x0009ae18	74	_ZN10BufferBaseIhh11Alloc_BasicE4FreeEv
0x000998d4	64	_ZN10BufferBaseIhh11Alloc_BasicE6CreateEj
0x00099914	10	_ZN10BufferBaseIhh11Alloc_BasicE6GetBufEv
0x0009a554	31	_ZN10BufferBaseIhh11Alloc_BasicEC1Ev
0x0009a554	31	_ZN10BufferBaseIhh11Alloc_BasicEC2Ev
0x0009a574	37	_ZN10BufferBaseIhh11Alloc_BasicED1Ev
0x0009a574	37	_ZN10BufferBaseIhh11Alloc_BasicED2Ev
0x000ab91a	218	_ZN10BufferBaseIhv11Alloc_BasicE10ReAllocateEj
0x000ab8ee	44	_ZN10BufferBaseIhv11Alloc_BasicE11SetCapacityEj
0x000aaf68	61	_ZN10BufferBaseIhv11Alloc_BasicE16SetBackingBufferEPKvj
0x000ab8a4	74	_ZN10BufferBaseIhv11Alloc_BasicE4FreeEv
0x000aaf28	64	_ZN10BufferBaseIhv11Alloc_BasicE6CreateEj
0x000aaee2	31	_ZN10BufferBaseIhv11Alloc_BasicEC1Ev
0x000aaee2	31	_ZN10BufferBaseIhv11Alloc_BasicEC2Ev
0x000aaf02	37	_ZN10BufferBaseIhv11Alloc_BasicED1Ev
0x000aaf02	37	_ZN10BufferBaseIhv11Alloc_BasicED2Ev
0x000a8af2	82	_ZN10ElemBuffer16SetBackingBufferEPKvjj
0x000a8aa6	75	_ZN10ElemBuffer6CreateEjj
0x000a8b44	23	_ZN10ElemBuffer7SetElemEjj
0x000a085c	37	_ZN10ElemBuffer9GetBufferEv
0x000a8a46	57	_ZN10ElemBufferC1Ev
0x000a8a46	57	_ZN10ElemBufferC2Ev
0x000a8a80	37	_ZN10ElemBufferD1Ev
0x000a8a80	37	_ZN10ElemBufferD2Ev
0x0009942a	30	_ZN10IWriteableC1Ev
0x0009942a	30	_ZN10IWriteableC2Ev
0x00080062	197	_ZN10L6FilePath10verifyNameERK8L6String
0x00080128	151	_ZN10L6FilePath10verifyPathERK8L6String
0x000808a4	398	_ZN10L6FilePath12filterStringER8L6Stringwbb
0x000801c0	266	_ZN10L6FilePath16appendNameToPathERK8L6StringS2_
0x0008082e	117	_ZN10L6FilePath17swapFileDirectoryERK8L6StringS2_
0x0007ff7e	227	_ZN10L6FilePath18verifyStringSuffixER8L6StringRKS0_bb
0x000802ca	323	_ZN10L6FilePath19getFileNameFromPathERK8L6String
0x000807a8	133	_ZN10L6FilePath20swapFilenameOntoPathERK8L6StringS2_
0x0007fe8e	239	_ZN10L6FilePath20verifyPathTerminatorER8L6Stringb
0x000805dc	459	_ZN10L6FilePath22removeFileNameFromPathERK8L6StringbPS0_
0x0008040e	462	_ZN10L6FilePath25getFileNameAndExtFromPathERK8L6StringRS0_S3_j
0x000831a0	40	_ZN10THREADINFOC1Ev
0x000831a0	40	_ZN10THREADINFOC2Ev
0x000831c8	40	_ZN10THREADINFOD1Ev
0x000831c8	40	_ZN10THREADINFOD2Ev
0x000e20e6	11	_ZN10TypedValue11GetIntValueEv
0x000e210e	11	_ZN10TypedValue12GetBoolValueEv
0x000e20f2	27	_ZN10TypedValue13GetFloatValueEv
0x000e2126	11	_ZN10TypedValue13GetStringDataEv
0x000f02e2	31	_ZN10TypedValue13GetVArrayDataEv
0x000e211a	11	_ZN10TypedValue14GetSymbolValueEv
0x000f0268	122	_ZN10TypedValue7GetSizeEv
0x000e20dc	10	_ZN10TypedValue7GetTypeEv
0x000e20d0	5	_ZN10TypedValueC1Ev
0x000e20d0	5	_ZN10TypedValueC2Ev
0x000e20d6	5	_ZN10TypedValueD1Ev
0x000e20d6	5	_ZN10TypedValueD2Ev
0x0016c200	78	_ZN10__cxxabiv111__terminateEPFvvE
0x0016c280	27	_ZN10__cxxabiv112__unexpectedEPFvvE
0x0016b4b0	56	_ZN10__cxxabiv115__forced_unwindD0Ev
0x0016b3f0	27	_ZN10__cxxabiv115__forced_unwindD1Ev
0x0016b3f0	27	_ZN10__cxxabiv115__forced_unwindD2Ev
0x0016c480	56	_ZN10__cxxabiv116__enum_type_infoD0Ev
0x0016c450	45	_ZN10__cxxabiv116__enum_type_infoD1Ev
0x0016c450	45	_ZN10__cxxabiv116__enum_type_infoD2Ev
0x0016a8b0	56	_ZN10__cxxabiv117__class_type_infoD0Ev
0x0016a880	45	_ZN10__cxxabiv117__class_type_infoD1Ev
0x0016a880	45	_ZN10__cxxabiv117__class_type_infoD2Ev
0x00170d30	56	_ZN10__cxxabiv117__pbase_type_infoD0Ev
0x00170d00	45	_ZN10__cxxabiv117__pbase_type_infoD1Ev
0x00170d00	45	_ZN10__cxxabiv117__pbase_type_infoD2Ev
0x0016b470	56	_ZN10__cxxabiv119__foreign_exceptionD0Ev
0x0016b410	27	_ZN10__cxxabiv119__foreign_exceptionD1Ev
0x0016b410	27	_ZN10__cxxabiv119__foreign_exceptionD2Ev
0x0016c7d0	56	_ZN10__cxxabiv119__pointer_type_infoD0Ev
0x0016c7a0	45	_ZN10__cxxabiv119__pointer_type_infoD1Ev
0x0016c7a0	45	_ZN10__cxxabiv119__pointer_type_infoD2Ev
0x0016c920	56	_ZN10__cxxabiv120__si_class_type_infoD0Ev
0x0016c8f0	45	_ZN10__cxxabiv120__si_class_type_infoD1Ev
0x0016c8f0	45	_ZN10__cxxabiv120__si_class_type_infoD2Ev
0x0016cd00	56	_ZN10__cxxabiv121__vmi_class_type_infoD0Ev
0x0016ccd0	45	_ZN10__cxxabiv121__vmi_class_type_infoD1Ev
0x0016ccd0	45	_ZN10__cxxabiv121__vmi_class_type_infoD2Ev
0x0016c4f0	56	_ZN10__cxxabiv123__fundamental_type_infoD0Ev
0x0016c4c0	45	_ZN10__cxxabiv123__fundamental_type_infoD1Ev
0x0016c4c0	45	_ZN10__cxxabiv123__fundamental_type_infoD2Ev
0x0009908e	48	_ZN11Alloc_Basic10ReAllocateEPvjj
0x0009a9cc	59	_ZN11Alloc_Basic10ReAllocateIhEEPT_S2_j
0x000990be	57	_ZN11Alloc_Basic4FreeEPPv
0x0009a9a0	44	_ZN11Alloc_Basic4FreeIhEEvPPT_
0x00099064	41	_ZN11Alloc_Basic8AllocateEjj
0x0009a0bc	51	_ZN11BufferUtils4CopyIhEEvPT_PKS1_j
0x0009a088	52	_ZN11BufferUtils4ZeroIhEEvPT_j
0x0008a9ec	30	_ZN11IDevicePortC1Ev
0x0008a9ec	30	_ZN11IDevicePortC2Ev
0x0008a95e	48	_ZN11IDevicePortD0Ev
0x0008a91e	63	_ZN11IDevicePortD1Ev
0x0008a91e	63	_ZN11IDevicePortD2Ev
0x000e60c4	1344	_ZN11L6A36Preset11HandleAssetEj
0x000e6dae	7564	_ZN11L6A36Preset11HandlePSKeyEjP10TypedValue
0x000e3ed4	4592	_ZN11L6A36Preset12ReadFromFileEPKvjbb
0x000e8eca	242	_ZN11L6A36Preset13HandleSlotEndEj
0x000ef0cc	431	_ZN11L6A36Preset13ValidateModelERK8L6String
0x000e5252	2913	_ZN11L6A36Preset14ReadFromDeviceEPvPKvjbb
0x000e8b44	891	_ZN11L6A36Preset15HandleSlotStartEj
0x000e3790	1517	_ZN11L6A36Preset15setTargetDeviceEjj
0x000e9006	56	_ZN11L6A36Preset16HandleSectionEndE15PresetSectionIDj
0x000e660e	1941	_ZN11L6A36Preset16HandleStateValueEjP10TypedValue
0x000e50c4	236	_ZN11L6A36Preset18AcceptFileDeviceIdEj
0x000e8fc6	54	_ZN11L6A36Preset18HandleSectionStartE15PresetSectionIDj
0x000eeb1e	1453	_ZN11L6A36Preset19ValidateGroupParamsERK8L6String
0x000ee756	968	_ZN11L6A36Preset22SetParamWithValidationERK8L6StringS2_RK9L6Variantb
0x000e51b0	10	_ZN11L6A36Preset23AcceptFileDeviceVersionEj
0x000ef27c	1761	_ZN11L6A36Preset25AddParamGroupWithDefaultsERK8L6StringS2_
0x000efb42	172	_ZN11L6A36Preset28StudioCabSymbolToModelAndMicEPKcR8L6StringRj
0x000efad6	108	_ZN11L6A36Preset31CabModelAndMicToStudioCabSymbolEPKcjR8L6String
0x000c338e	216	_ZN11L6A36Preset8SetParamERK9L6VariantS2_S2_b
0x000e3616	295	_ZN11L6A36PresetC1ERKS_
0x000e33d2	287	_ZN11L6A36PresetC1Ejj
0x000e3616	295	_ZN11L6A36PresetC2ERKS_
0x000e33d2	287	_ZN11L6A36PresetC2Ejj
0x000e35c8	48	_ZN11L6A36PresetD0Ev
0x000e34fc	193	_ZN11L6A36PresetD1Ev
0x000e34fc	193	_ZN11L6A36PresetD2Ev
0x000c4dc4	210	_ZN11L6A36PresetaSERKS_
0x00097642	46	_ZN11L6ByteUtils16endianSwapUInt32EPj
0x00097613	47	_ZN11L6ByteUtils16endianSwapUInt32Ej
0x00083f16	233	_ZN11L6Condition4waitEP7L6Mutexj
0x00083eee	40	_ZN11L6Condition6signalEv
0x00084000	40	_ZN11L6Condition9broadcastEv
0x00083e06	82	_ZN11L6ConditionC1Ev
0x00083e06	82	_ZN11L6ConditionC2Ev
0x00083ebe	48	_ZN11L6ConditionD0Ev
0x00083e58	101	_ZN11L6ConditionD1Ev
0x00083e58	101	_ZN11L6ConditionD2Ev
0x000b672e	162	_ZN11L6HashTableI8L6StringP6L6ListIN25L6EdLibNotificationCenter8ObserverEEE5clearEv
0x000b60b8	228	_ZN11L6HashTableI8L6StringP6L6ListIN25L6EdLibNotificationCenter8ObserverEEE6insertERKS0_RKS5_
0x000b64ea	210	_ZN11L6HashTableI8L6StringP6L6ListIN25L6EdLibNotificationCenter8ObserverEEE6removeERKS0_
0x000b6092	37	_ZN11L6HashTableI8L6StringP6L6ListIN25L6EdLibNotificationCenter8ObserverEEE8ListNodeC1Ev
0x000b6092	37	_ZN11L6HashTableI8L6StringP6L6ListIN25L6EdLibNotificationCenter8ObserverEEE8ListNodeC2Ev
0x000b64c4	37	_ZN11L6HashTableI8L6StringP6L6ListIN25L6EdLibNotificationCenter8ObserverEEE8ListNodeD1Ev
0x000b64c4	37	_ZN11L6HashTableI8L6StringP6L6ListIN25L6EdLibNotificationCenter8ObserverEEE8ListNodeD2Ev
0x000b5b12	205	_ZN11L6HashTableI8L6StringP6L6ListIN25L6EdLibNotificationCenter8ObserverEEEC1Ej
0x000b5b12	205	_ZN11L6HashTableI8L6StringP6L6ListIN25L6EdLibNotificationCenter8ObserverEEEC2Ej
0x000b5c4c	48	_ZN11L6HashTableI8L6StringP6L6ListIN25L6EdLibNotificationCenter8ObserverEEED0Ev
0x000b5be0	108	_ZN11L6HashTableI8L6StringP6L6ListIN25L6EdLibNotificationCenter8ObserverEEED1Ev
0x000b5be0	108	_ZN11L6HashTableI8L6StringP6L6ListIN25L6EdLibNotificationCenter8ObserverEEED2Ev
0x000b4c62	162	_ZN11L6HashTableI8L6StringPN16L6EdLibModelDefs8ModelDefEE5clearEv
0x000b495c	228	_ZN11L6HashTableI8L6StringPN16L6EdLibModelDefs8ModelDefEE6insertERKS0_RKS3_
0x000b4936	37	_ZN11L6HashTableI8L6StringPN16L6EdLibModelDefs8ModelDefEE8ListNodeC1Ev
0x000b4936	37	_ZN11L6HashTableI8L6StringPN16L6EdLibModelDefs8ModelDefEE8ListNodeC2Ev
0x000b4d04	37	_ZN11L6HashTableI8L6StringPN16L6EdLibModelDefs8ModelDefEE8ListNodeD1Ev
0x000b4d04	37	_ZN11L6HashTableI8L6StringPN16L6EdLibModelDefs8ModelDefEE8ListNodeD2Ev
0x000b43e8	205	_ZN11L6HashTableI8L6StringPN16L6EdLibModelDefs8ModelDefEEC1Ej
0x000b43e8	205	_ZN11L6HashTableI8L6StringPN16L6EdLibModelDefs8ModelDefEEC2Ej
0x000b4522	48	_ZN11L6HashTableI8L6StringPN16L6EdLibModelDefs8ModelDefEED0Ev
0x000b44b6	108	_ZN11L6HashTableI8L6StringPN16L6EdLibModelDefs8ModelDefEED1Ev
0x000b44b6	108	_ZN11L6HashTableI8L6StringPN16L6EdLibModelDefs8ModelDefEED2Ev
0x000b4a40	162	_ZN11L6HashTableI8L6StringPN16L6EdLibModelDefs8ParamDefEE5clearEv
0x000b3ff8	228	_ZN11L6HashTableI8L6StringPN16L6EdLibModelDefs8ParamDefEE6insertERKS0_RKS3_
0x000b3fd2	37	_ZN11L6HashTableI8L6StringPN16L6EdLibModelDefs8ParamDefEE8ListNodeC1Ev
0x000b3fd2	37	_ZN11L6HashTableI8L6StringPN16L6EdLibModelDefs8ParamDefEE8ListNodeC2Ev
0x000b4ae2	37	_ZN11L6HashTableI8L6StringPN16L6EdLibModelDefs8ParamDefEE8ListNodeD1Ev
0x000b4ae2	37	_ZN11L6HashTableI8L6StringPN16L6EdLibModelDefs8ParamDefEE8ListNodeD2Ev
0x000b3dc8	205	_ZN11L6HashTableI8L6StringPN16L6EdLibModelDefs8ParamDefEEC1Ej
0x000b3dc8	205	_ZN11L6HashTableI8L6StringPN16L6EdLibModelDefs8ParamDefEEC2Ej
0x000b3f02	48	_ZN11L6HashTableI8L6StringPN16L6EdLibModelDefs8ParamDefEED0Ev
0x000b3e96	108	_ZN11L6HashTableI8L6StringPN16L6EdLibModelDefs8ParamDefEED1Ev
0x000b3e96	108	_ZN11L6HashTableI8L6StringPN16L6EdLibModelDefs8ParamDefEED2Ev
0x000bd2d2	162	_ZN11L6HashTableI9L6VariantPN17L6EdLibParamGroup5PARAMEE5clearEv
0x000bce64	228	_ZN11L6HashTableI9L6VariantPN17L6EdLibParamGroup5PARAMEE6insertERKS0_RKS3_
0x000bcf6e	210	_ZN11L6HashTableI9L6VariantPN17L6EdLibParamGroup5PARAMEE6removeERKS0_
0x000bce3e	37	_ZN11L6HashTableI9L6VariantPN17L6EdLibParamGroup5PARAMEE8ListNodeC1Ev
0x000bce3e	37	_ZN11L6HashTableI9L6VariantPN17L6EdLibParamGroup5PARAMEE8ListNodeC2Ev
0x000bcf48	37	_ZN11L6HashTableI9L6VariantPN17L6EdLibParamGroup5PARAMEE8ListNodeD1Ev
0x000bcf48	37	_ZN11L6HashTableI9L6VariantPN17L6EdLibParamGroup5PARAMEE8ListNodeD2Ev
0x000bcb74	205	_ZN11L6HashTableI9L6VariantPN17L6EdLibParamGroup5PARAMEEC1Ej
0x000bcb74	205	_ZN11L6HashTableI9L6VariantPN17L6EdLibParamGroup5PARAMEEC2Ej
0x000bccae	48	_ZN11L6HashTableI9L6VariantPN17L6EdLibParamGroup5PARAMEED0Ev
0x000bcc42	108	_ZN11L6HashTableI9L6VariantPN17L6EdLibParamGroup5PARAMEED1Ev
0x000bcc42	108	_ZN11L6HashTableI9L6VariantPN17L6EdLibParamGroup5PARAMEED2Ev
0x0008411e	126	_ZN11L6Semaphore4initEi
0x0008419c	66	_ZN11L6Semaphore4postEv
0x000841de	254	_ZN11L6Semaphore4waitEj
0x00084028	82	_ZN11L6SemaphoreC1Ev
0x00084028	82	_ZN11L6SemaphoreC2Ev
0x000840ee	48	_ZN11L6SemaphoreD0Ev
0x0008407a	115	_ZN11L6SemaphoreD1Ev
0x0008407a	115	_ZN11L6SemaphoreD2Ev
0x000c2a42	301	_ZN11SymbolTable17InitFromTableDataEPKvjb
0x000c2984	71	_ZN11SymbolTableC1Ev
0x000c2984	71	_ZN11SymbolTableC2Ev
0x000c29cc	118	_ZN11SymbolTableD1Ev
0x000c29cc	118	_ZN11SymbolTableD2Ev
0x0008c78c	30	_ZN12IL6DeviceLibC1Ev
0x0008c78c	30	_ZN12IL6DeviceLibC2Ev
0x0008c64a	48	_ZN12IL6DeviceLibD0Ev
0x0008c60a	63	_ZN12IL6DeviceLibD1Ev
0x0008c60a	63	_ZN12IL6DeviceLibD2Ev
0x00097a1c	105	_ZN12InStreamGlue4ReadEPvjj
0x000979da	65	_ZN12InStreamGlueC1EPKvj
0x000979da	65	_ZN12InStreamGlueC2EPKvj
0x0008b820	10	_ZN12L6BspMsgPort10changeModeE9ePortMode
0x0008b82a	11	_ZN12L6BspMsgPort17getUnderlyingPortEv
0x0008ba70	755	_ZN12L6BspMsgPort4openEv
0x0008bf04	71	_ZN12L6BspMsgPort4readEPvj
0x0008bd64	416	_ZN12L6BspMsgPort5closeEv
0x0008bf94	71	_ZN12L6BspMsgPort5writeEPKvj
0x0008bf4c	71	_ZN12L6BspMsgPort7readAllEPvj
0x0008b8a8	232	_ZN12L6BspMsgPortC1E9ePortModejjii
0x0008b8a8	232	_ZN12L6BspMsgPortC2E9ePortModejjii
0x0008ba40	48	_ZN12L6BspMsgPortD0Ev
0x0008b990	175	_ZN12L6BspMsgPortD1Ev
0x0008b990	175	_ZN12L6BspMsgPortD2Ev
0x000c1066	63	_ZN12L6DictionaryI8L6String9L6VariantE5clearEv
0x000d7b7a	51	_ZN12L6DictionaryI8L6String9L6VariantEC1Ev
0x000d7b7a	51	_ZN12L6DictionaryI8L6String9L6VariantEC2Ev
0x000d7bf8	48	_ZN12L6DictionaryI8L6String9L6VariantED0Ev
0x000d7bae	74	_ZN12L6DictionaryI8L6String9L6VariantED1Ev
0x000d7bae	74	_ZN12L6DictionaryI8L6String9L6VariantED2Ev
0x000c1260	102	_ZN12L6DictionaryI8L6String9L6VariantEixERKS0_
0x000d7a6a	63	_ZN12L6DictionaryI8L6StringP20A36EditBufferContextE5clearEv
0x000d7af4	134	_ZN12L6DictionaryI8L6StringP20A36EditBufferContextE6insertERKS0_RKS2_
0x000d79fe	108	_ZN12L6DictionaryI8L6StringP20A36EditBufferContextE8iterator5valueEv
0x000d78ee	13	_ZN12L6DictionaryI8L6StringP20A36EditBufferContextE8iteratorC1EPN14BinaryTreeBaseIS0_S2_E4NodeE
0x000d78ee	13	_ZN12L6DictionaryI8L6StringP20A36EditBufferContextE8iteratorC2EPN14BinaryTreeBaseIS0_S2_E4NodeE
0x000d794a	18	_ZN12L6DictionaryI8L6StringP20A36EditBufferContextE8iteratoraSERKS4_
0x000d798e	20	_ZN12L6DictionaryI8L6StringP20A36EditBufferContextE8iteratorneERKS4_
0x000d79a2	91	_ZN12L6DictionaryI8L6StringP20A36EditBufferContextE8iteratorppEv
0x000d780c	51	_ZN12L6DictionaryI8L6StringP20A36EditBufferContextEC1Ev
0x000d780c	51	_ZN12L6DictionaryI8L6StringP20A36EditBufferContextEC2Ev
0x000d788a	48	_ZN12L6DictionaryI8L6StringP20A36EditBufferContextED0Ev
0x000d7840	74	_ZN12L6DictionaryI8L6StringP20A36EditBufferContextED1Ev
0x000d7840	74	_ZN12L6DictionaryI8L6StringP20A36EditBufferContextED2Ev
0x000d78ba	51	_ZN12L6DictionaryI8L6StringP20A36EditBufferContextEixERKS0_
0x000bd900	63	_ZN12L6DictionaryI9L6Variant17L6EdLibParamGroupE5clearEv
0x000bdc4a	134	_ZN12L6DictionaryI9L6Variant17L6EdLibParamGroupE6insertERKS0_RKS1_
0x000bd71c	191	_ZN12L6DictionaryI9L6Variant17L6EdLibParamGroupE6removeERNS2_8iteratorE
0x000bd630	108	_ZN12L6DictionaryI9L6Variant17L6EdLibParamGroupE8iterator5valueEv
0x000bd7dc	13	_ZN12L6DictionaryI9L6Variant17L6EdLibParamGroupE8iteratorC1EPN14BinaryTreeBaseIS0_S1_E4NodeE
0x000bd5da	15	_ZN12L6DictionaryI9L6Variant17L6EdLibParamGroupE8iteratorC1ERKS3_
0x000bd7dc	13	_ZN12L6DictionaryI9L6Variant17L6EdLibParamGroupE8iteratorC2EPN14BinaryTreeBaseIS0_S1_E4NodeE
0x000bd5da	15	_ZN12L6DictionaryI9L6Variant17L6EdLibParamGroupE8iteratorC2ERKS3_
0x000bd70a	18	_ZN12L6DictionaryI9L6Variant17L6EdLibParamGroupE8iteratoraSERKS3_
0x000bde36	20	_ZN12L6DictionaryI9L6Variant17L6EdLibParamGroupE8iteratoreqERKS3_
0x000bd61c	20	_ZN12L6DictionaryI9L6Variant17L6EdLibParamGroupE8iteratorneERKS3_
0x000bd838	91	_ZN12L6DictionaryI9L6Variant17L6EdLibParamGroupE8iteratorppEv
0x000bd47e	96	_ZN12L6DictionaryI9L6Variant17L6EdLibParamGroupEC1ERKS2_
0x000bd3d0	51	_ZN12L6DictionaryI9L6Variant17L6EdLibParamGroupEC1Ev
0x000bd47e	96	_ZN12L6DictionaryI9L6Variant17L6EdLibParamGroupEC2ERKS2_
0x000bd3d0	51	_ZN12L6DictionaryI9L6Variant17L6EdLibParamGroupEC2Ev
0x000bd44e	48	_ZN12L6DictionaryI9L6Variant17L6EdLibParamGroupED0Ev
0x000bd404	74	_ZN12L6DictionaryI9L6Variant17L6EdLibParamGroupED1Ev
0x000bd404	74	_ZN12L6DictionaryI9L6Variant17L6EdLibParamGroupED2Ev
0x000bd4de	178	_ZN12L6DictionaryI9L6Variant17L6EdLibParamGroupEaSERKS2_
0x000bd69c	110	_ZN12L6DictionaryI9L6Variant17L6EdLibParamGroupEixERKS0_
0x00079ce0	63	_ZN12L6DictionaryI9L6VariantS0_E5clearEv
0x0007ac0c	134	_ZN12L6DictionaryI9L6VariantS0_E6insertERKS0_S3_
0x000bc950	191	_ZN12L6DictionaryI9L6VariantS0_E6removeERNS1_8iteratorE
0x0007a424	108	_ZN12L6DictionaryI9L6VariantS0_E8iterator5valueEv
0x00079e74	13	_ZN12L6DictionaryI9L6VariantS0_E8iteratorC1EPN14BinaryTreeBaseIS0_S0_E4NodeE
0x000bc940	15	_ZN12L6DictionaryI9L6VariantS0_E8iteratorC1ERKS2_
0x00079e74	13	_ZN12L6DictionaryI9L6VariantS0_E8iteratorC2EPN14BinaryTreeBaseIS0_S0_E4NodeE
0x000bc940	15	_ZN12L6DictionaryI9L6VariantS0_E8iteratorC2ERKS2_
0x00079ed0	18	_ZN12L6DictionaryI9L6VariantS0_E8iteratoraSERKS2_
0x0007a410	20	_ZN12L6DictionaryI9L6VariantS0_E8iteratoreqERKS2_
0x00079f14	20	_ZN12L6DictionaryI9L6VariantS0_E8iteratorneERKS2_
0x00079f28	91	_ZN12L6DictionaryI9L6VariantS0_E8iteratorppEv
0x00079be6	96	_ZN12L6DictionaryI9L6VariantS0_EC1ERKS1_
0x00079c46	51	_ZN12L6DictionaryI9L6VariantS0_EC1Ev
0x00079be6	96	_ZN12L6DictionaryI9L6VariantS0_EC2ERKS1_
0x00079c46	51	_ZN12L6DictionaryI9L6VariantS0_EC2Ev
0x0007a03a	48	_ZN12L6DictionaryI9L6VariantS0_ED0Ev
0x00079ff0	74	_ZN12L6DictionaryI9L6VariantS0_ED1Ev
0x00079ff0	74	_ZN12L6DictionaryI9L6VariantS0_ED2Ev
0x0007a2d8	178	_ZN12L6DictionaryI9L6VariantS0_EaSERKS1_
0x00079c7a	102	_ZN12L6DictionaryI9L6VariantS0_EixERKS0_
0x000cc44c	13	_ZN12L6DictionaryIj9L6VariantE8iteratorC1EPN14BinaryTreeBaseIjS0_E4NodeE
0x000cc44c	13	_ZN12L6DictionaryIj9L6VariantE8iteratorC2EPN14BinaryTreeBaseIjS0_E4NodeE
0x000cc1e8	20	_ZN12L6DictionaryIj9L6VariantE8iteratorneERKS2_
0x000cc058	51	_ZN12L6DictionaryIj9L6VariantEC1Ev
0x000cc058	51	_ZN12L6DictionaryIj9L6VariantEC2Ev
0x000cc0d6	48	_ZN12L6DictionaryIj9L6VariantED0Ev
0x000cc08c	74	_ZN12L6DictionaryIj9L6VariantED1Ev
0x000cc08c	74	_ZN12L6DictionaryIj9L6VariantED2Ev
0x000cc106	102	_ZN12L6DictionaryIj9L6VariantEixERKj
0x00084878	191	_ZN12L6DictionaryIjP10THREADINFOE6removeERNS2_8iteratorE
0x0008472e	108	_ZN12L6DictionaryIjP10THREADINFOE8iterator5valueEv
0x000847ae	13	_ZN12L6DictionaryIjP10THREADINFOE8iteratorC1EPN14BinaryTreeBaseIjS1_E4NodeE
0x000846d8	15	_ZN12L6DictionaryIjP10THREADINFOE8iteratorC1ERKS3_
0x000847ae	13	_ZN12L6DictionaryIjP10THREADINFOE8iteratorC2EPN14BinaryTreeBaseIjS1_E4NodeE
0x000846d8	15	_ZN12L6DictionaryIjP10THREADINFOE8iteratorC2ERKS3_
0x0008480a	18	_ZN12L6DictionaryIjP10THREADINFOE8iteratoraSERKS3_
0x0008479a	20	_ZN12L6DictionaryIjP10THREADINFOE8iteratoreqERKS3_
0x0008471a	20	_ZN12L6DictionaryIjP10THREADINFOE8iteratorneERKS3_
0x0008481c	91	_ZN12L6DictionaryIjP10THREADINFOE8iteratorppEv
0x000845ac	51	_ZN12L6DictionaryIjP10THREADINFOEC1Ev
0x000845ac	51	_ZN12L6DictionaryIjP10THREADINFOEC2Ev
0x0008462a	48	_ZN12L6DictionaryIjP10THREADINFOED0Ev
0x000845e0	74	_ZN12L6DictionaryIjP10THREADINFOED1Ev
0x000845e0	74	_ZN12L6DictionaryIjP10THREADINFOED2Ev
0x0008465a	51	_ZN12L6DictionaryIjP10THREADINFOEixERKj
0x0008f60a	63	_ZN12L6DictionaryIjP8L6DeviceE5clearEv
0x0008f87a	191	_ZN12L6DictionaryIjP8L6DeviceE6removeERNS2_8iteratorE
0x0008f59e	108	_ZN12L6DictionaryIjP8L6DeviceE8iterator5valueEv
0x0008f48e	13	_ZN12L6DictionaryIjP8L6DeviceE8iteratorC1EPN14BinaryTreeBaseIjS1_E4NodeE
0x0008fc40	15	_ZN12L6DictionaryIjP8L6DeviceE8iteratorC1ERKS3_
0x0008f48e	13	_ZN12L6DictionaryIjP8L6DeviceE8iteratorC2EPN14BinaryTreeBaseIjS1_E4NodeE
0x0008fc40	15	_ZN12L6DictionaryIjP8L6DeviceE8iteratorC2ERKS3_
0x0008f4ea	18	_ZN12L6DictionaryIjP8L6DeviceE8iteratoraSERKS3_
0x0008fb52	20	_ZN12L6DictionaryIjP8L6DeviceE8iteratoreqERKS3_
0x0008f52e	20	_ZN12L6DictionaryIjP8L6DeviceE8iteratorneERKS3_
0x0008f542	91	_ZN12L6DictionaryIjP8L6DeviceE8iteratorppEv
0x0008f33e	51	_ZN12L6DictionaryIjP8L6DeviceEC1Ev
0x0008f33e	51	_ZN12L6DictionaryIjP8L6DeviceEC2Ev
0x0008f3bc	48	_ZN12L6DictionaryIjP8L6DeviceED0Ev
0x0008f372	74	_ZN12L6DictionaryIjP8L6DeviceED1Ev
0x0008f372	74	_ZN12L6DictionaryIjP8L6DeviceED2Ev
0x0008f846	51	_ZN12L6DictionaryIjP8L6DeviceEixERKj
0x00081bf6	131	_ZN12L6FileSystem10deleteFileERK8L6String
0x00081b84	114	_ZN12L6FileSystem10fileExistsERK8L6String
0x00082ab4	84	_ZN12L6FileSystem10isReadOnlyERK8L6String
0x00081dc8	306	_ZN12L6FileSystem10renameFileERK8L6StringS2_
0x00082798	796	_ZN12L6FileSystem13createDirTreeERK8L6String
0x00081b7a	10	_ZN12L6FileSystem13getSpecialDirENS_15eSpecialDirTypeENS_17eSpecialDirDomainER8L6String
0x00082b08	526	_ZN12L6FileSystem20generateTempFilenameERK8L6StringS2_RS0_
0x0008250a	653	_ZN12L6FileSystem7enumDirERK8L6StringbPFbS2_S2_bPvES3_
0x000821da	422	_ZN12L6FileSystem7moveDirERK8L6StringS2_
0x00081c7a	334	_ZN12L6FileSystem8moveFileERK8L6StringS2_
0x00082014	241	_ZN12L6FileSystem9createDirERK8L6StringS2_
0x00082106	211	_ZN12L6FileSystem9deleteDirERK8L6String
0x00081f54	192	_ZN12L6FileSystem9dirExistsERK8L6String
0x00081efa	90	_ZN12L6FileSystem9isRootDirERK8L6String
0x00082380	394	_ZN12L6FileSystem9renameDirERK8L6StringS2_
0x00082f1e	37	_ZN12L6ThreadPool10globalInitEv
0x0008352a	171	_ZN12L6ThreadPool11isCancelledEj
0x00083682	296	_ZN12L6ThreadPool11waitForExitEjj
0x000ce1ae	30	_ZN12L6ThreadPool12IThreadEntryC1Ev
0x000ce1ae	30	_ZN12L6ThreadPool12IThreadEntryC2Ev
0x000ce09e	48	_ZN12L6ThreadPool12IThreadEntryD0Ev
0x000ce05e	63	_ZN12L6ThreadPool12IThreadEntryD1Ev
0x000ce05e	63	_ZN12L6ThreadPool12IThreadEntryD2Ev
0x00083168	56	_ZN12L6ThreadPool12isMainThreadEv
0x00082e9e	128	_ZN12L6ThreadPool14sharedInstanceEv
0x00082f44	108	_ZN12L6ThreadPool15globalTerminateEv
0x000837aa	221	_ZN12L6ThreadPool16getCurrentThreadEv
0x00082fb0	78	_ZN12L6ThreadPool4IMPLC1Ev
0x00082fb0	78	_ZN12L6ThreadPool4IMPLC2Ev
0x0008305a	76	_ZN12L6ThreadPool4IMPLD1Ev
0x0008305a	76	_ZN12L6ThreadPool4IMPLD2Ev
0x0008313c	43	_ZN12L6ThreadPool5sleepEj
0x00083490	153	_ZN12L6ThreadPool6cancelEj
0x00083340	336	_ZN12L6ThreadPool6createEPFiPvES0_Pj
0x000831f0	336	_ZN12L6ThreadPool6createEPNS_12IThreadEntryEPvPj
0x000835d6	171	_ZN12L6ThreadPool9isRunningEj
0x00082ffe	92	_ZN12L6ThreadPoolC1Ev
0x00082ffe	92	_ZN12L6ThreadPoolC2Ev
0x0008310c	48	_ZN12L6ThreadPoolD0Ev
0x000830a6	101	_ZN12L6ThreadPoolD1Ev
0x000830a6	101	_ZN12L6ThreadPoolD2Ev
0x0009747c	69	_ZN13ISerializable13WriteToStreamER9OutStream
0x000974c2	69	_ZN13ISerializable14ReadFromStreamER8InStream
0x00099448	80	_ZN13ISerializableC1Ev
0x00099448	80	_ZN13ISerializableC2Ev
0x000d811a	88	_ZN14BinaryTreeBaseI8L6String9L6VariantE10CreateNodeERKS0_RKS1_
0x000da42e	44	_ZN14BinaryTreeBaseI8L6String9L6VariantE4Node7MinimumEv
0x000d9bac	120	_ZN14BinaryTreeBaseI8L6String9L6VariantE4Node9SuccessorEv
0x000d8506	140	_ZN14BinaryTreeBaseI8L6String9L6VariantE4NodeC1ERKS0_RKS1_
0x000d8506	140	_ZN14BinaryTreeBaseI8L6String9L6VariantE4NodeC2ERKS0_RKS1_
0x000d86dc	48	_ZN14BinaryTreeBaseI8L6String9L6VariantE4NodeD0Ev
0x000d85f8	228	_ZN14BinaryTreeBaseI8L6String9L6VariantE4NodeD1Ev
0x000d85f8	228	_ZN14BinaryTreeBaseI8L6String9L6VariantE4NodeD2Ev
0x000d9206	402	_ZN14BinaryTreeBaseI8L6String9L6VariantE6DeleteEPNS2_4NodeE
0x000d8172	180	_ZN14BinaryTreeBaseI8L6String9L6VariantE6InsertEPNS2_4NodeE
0x000c14e2	195	_ZN14BinaryTreeBaseI8L6String9L6VariantE7SetItemERKS0_RKS1_
0x000d8442	40	_ZN14BinaryTreeBaseI8L6String9L6VariantEC1Ev
0x000d8442	40	_ZN14BinaryTreeBaseI8L6String9L6VariantEC2Ev
0x000d84d6	48	_ZN14BinaryTreeBaseI8L6String9L6VariantED0Ev
0x000d846a	107	_ZN14BinaryTreeBaseI8L6String9L6VariantED1Ev
0x000d846a	107	_ZN14BinaryTreeBaseI8L6String9L6VariantED2Ev
0x000d8336	88	_ZN14BinaryTreeBaseI8L6StringP20A36EditBufferContextE10CreateNodeERKS0_RKS2_
0x000d7e32	44	_ZN14BinaryTreeBaseI8L6StringP20A36EditBufferContextE4Node7MinimumEv
0x000d7e5e	120	_ZN14BinaryTreeBaseI8L6StringP20A36EditBufferContextE4Node9SuccessorEv
0x000d8592	102	_ZN14BinaryTreeBaseI8L6StringP20A36EditBufferContextE4NodeC1ERKS0_RKS2_
0x000d8592	102	_ZN14BinaryTreeBaseI8L6StringP20A36EditBufferContextE4NodeC2ERKS0_RKS2_
0x000d7f9a	48	_ZN14BinaryTreeBaseI8L6StringP20A36EditBufferContextE4NodeD0Ev
0x000d7ed6	196	_ZN14BinaryTreeBaseI8L6StringP20A36EditBufferContextE4NodeD1Ev
0x000d7ed6	196	_ZN14BinaryTreeBaseI8L6StringP20A36EditBufferContextE4NodeD2Ev
0x000d985c	350	_ZN14BinaryTreeBaseI8L6StringP20A36EditBufferContextE6DeleteEPNS3_4NodeE
0x000d838e	180	_ZN14BinaryTreeBaseI8L6StringP20A36EditBufferContextE6InsertEPNS3_4NodeE
0x000d7d6e	195	_ZN14BinaryTreeBaseI8L6StringP20A36EditBufferContextE7SetItemERKS0_RKS2_
0x000d8226	40	_ZN14BinaryTreeBaseI8L6StringP20A36EditBufferContextEC1Ev
0x000d8226	40	_ZN14BinaryTreeBaseI8L6StringP20A36EditBufferContextEC2Ev
0x000d82ba	48	_ZN14BinaryTreeBaseI8L6StringP20A36EditBufferContextED0Ev
0x000d824e	107	_ZN14BinaryTreeBaseI8L6StringP20A36EditBufferContextED1Ev
0x000d824e	107	_ZN14BinaryTreeBaseI8L6StringP20A36EditBufferContextED2Ev
0x000be172	88	_ZN14BinaryTreeBaseI9L6Variant17L6EdLibParamGroupE10CreateNodeERKS0_RKS1_
0x000bde4a	95	_ZN14BinaryTreeBaseI9L6Variant17L6EdLibParamGroupE10DeleteItemERKS0_
0x000bdeaa	44	_ZN14BinaryTreeBaseI9L6Variant17L6EdLibParamGroupE4Node7MinimumEv
0x000bded6	120	_ZN14BinaryTreeBaseI9L6Variant17L6EdLibParamGroupE4Node9SuccessorEv
0x000be410	140	_ZN14BinaryTreeBaseI9L6Variant17L6EdLibParamGroupE4NodeC1ERKS0_RKS1_
0x000be410	140	_ZN14BinaryTreeBaseI9L6Variant17L6EdLibParamGroupE4NodeC2ERKS0_RKS1_
0x000be032	48	_ZN14BinaryTreeBaseI9L6Variant17L6EdLibParamGroupE4NodeD0Ev
0x000bdf4e	228	_ZN14BinaryTreeBaseI9L6Variant17L6EdLibParamGroupE4NodeD1Ev
0x000bdf4e	228	_ZN14BinaryTreeBaseI9L6Variant17L6EdLibParamGroupE4NodeD2Ev
0x000be27e	402	_ZN14BinaryTreeBaseI9L6Variant17L6EdLibParamGroupE6DeleteEPNS2_4NodeE
0x000be1ca	180	_ZN14BinaryTreeBaseI9L6Variant17L6EdLibParamGroupE6InsertEPNS2_4NodeE
0x000bdd72	195	_ZN14BinaryTreeBaseI9L6Variant17L6EdLibParamGroupE7SetItemERKS0_RKS1_
0x000be062	40	_ZN14BinaryTreeBaseI9L6Variant17L6EdLibParamGroupEC1Ev
0x000be062	40	_ZN14BinaryTreeBaseI9L6Variant17L6EdLibParamGroupEC2Ev
0x000be0f6	48	_ZN14BinaryTreeBaseI9L6Variant17L6EdLibParamGroupED0Ev
0x000be08a	107	_ZN14BinaryTreeBaseI9L6Variant17L6EdLibParamGroupED1Ev
0x000be08a	107	_ZN14BinaryTreeBaseI9L6Variant17L6EdLibParamGroupED2Ev
0x0007aec0	88	_ZN14BinaryTreeBaseI9L6VariantS0_E10CreateNodeERKS0_S3_
0x000bd9e2	95	_ZN14BinaryTreeBaseI9L6VariantS0_E10DeleteItemERKS0_
0x0007ab5a	44	_ZN14BinaryTreeBaseI9L6VariantS0_E4Node7MinimumEv
0x0007ab86	120	_ZN14BinaryTreeBaseI9L6VariantS0_E4Node9SuccessorEv
0x0007b0b8	140	_ZN14BinaryTreeBaseI9L6VariantS0_E4NodeC1ERKS0_S4_
0x0007b0b8	140	_ZN14BinaryTreeBaseI9L6VariantS0_E4NodeC2ERKS0_S4_
0x0007aab2	48	_ZN14BinaryTreeBaseI9L6VariantS0_E4NodeD0Ev
0x0007a9ce	228	_ZN14BinaryTreeBaseI9L6VariantS0_E4NodeD1Ev
0x0007a9ce	228	_ZN14BinaryTreeBaseI9L6VariantS0_E4NodeD2Ev
0x0007c12a	402	_ZN14BinaryTreeBaseI9L6VariantS0_E6DeleteEPNS1_4NodeE
0x0007af18	180	_ZN14BinaryTreeBaseI9L6VariantS0_E6InsertEPNS1_4NodeE
0x0007a90a	195	_ZN14BinaryTreeBaseI9L6VariantS0_E7SetItemERKS0_S3_
0x0007adb0	40	_ZN14BinaryTreeBaseI9L6VariantS0_EC1Ev
0x0007adb0	40	_ZN14BinaryTreeBaseI9L6VariantS0_EC2Ev
0x0007ae44	48	_ZN14BinaryTreeBaseI9L6VariantS0_ED0Ev
0x0007add8	107	_ZN14BinaryTreeBaseI9L6VariantS0_ED1Ev
0x0007add8	107	_ZN14BinaryTreeBaseI9L6VariantS0_ED2Ev
0x000cc5ec	88	_ZN14BinaryTreeBaseIj9L6VariantE10CreateNodeERKjRKS0_
0x000cd9a6	44	_ZN14BinaryTreeBaseIj9L6VariantE4Node7MinimumEv
0x000cd622	120	_ZN14BinaryTreeBaseIj9L6VariantE4Node9SuccessorEv
0x000cc7ca	102	_ZN14BinaryTreeBaseIj9L6VariantE4NodeC1ERKjRKS0_
0x000cc7ca	102	_ZN14BinaryTreeBaseIj9L6VariantE4NodeC2ERKjRKS0_
0x000cc79a	48	_ZN14BinaryTreeBaseIj9L6VariantE4NodeD0Ev
0x000cc6d6	196	_ZN14BinaryTreeBaseIj9L6VariantE4NodeD1Ev
0x000cc6d6	196	_ZN14BinaryTreeBaseIj9L6VariantE4NodeD2Ev
0x000cd2d2	350	_ZN14BinaryTreeBaseIj9L6VariantE6DeleteEPNS1_4NodeE
0x000cc644	139	_ZN14BinaryTreeBaseIj9L6VariantE6InsertEPNS1_4NodeE
0x000cc30a	195	_ZN14BinaryTreeBaseIj9L6VariantE7SetItemERKjRKS0_
0x000cc4dc	40	_ZN14BinaryTreeBaseIj9L6VariantEC1Ev
0x000cc4dc	40	_ZN14BinaryTreeBaseIj9L6VariantEC2Ev
0x000cc570	48	_ZN14BinaryTreeBaseIj9L6VariantED0Ev
0x000cc504	107	_ZN14BinaryTreeBaseIj9L6VariantED1Ev
0x000cc504	107	_ZN14BinaryTreeBaseIj9L6VariantED2Ev
0x00084da8	88	_ZN14BinaryTreeBaseIjP10THREADINFOE10CreateNodeERKjRKS1_
0x00084bcc	95	_ZN14BinaryTreeBaseIjP10THREADINFOE10DeleteItemERKj
0x00084b28	44	_ZN14BinaryTreeBaseIjP10THREADINFOE4Node7MinimumEv
0x00084b54	120	_ZN14BinaryTreeBaseIjP10THREADINFOE4Node9SuccessorEv
0x0008507a	82	_ZN14BinaryTreeBaseIjP10THREADINFOE4NodeC1ERKjRKS1_
0x0008507a	82	_ZN14BinaryTreeBaseIjP10THREADINFOE4NodeC2ERKjRKS1_
0x0008504a	48	_ZN14BinaryTreeBaseIjP10THREADINFOE4NodeD0Ev
0x00084fb2	151	_ZN14BinaryTreeBaseIjP10THREADINFOE4NodeD1Ev
0x00084fb2	151	_ZN14BinaryTreeBaseIjP10THREADINFOE4NodeD2Ev
0x00084e8c	294	_ZN14BinaryTreeBaseIjP10THREADINFOE6DeleteEPNS2_4NodeE
0x00084e00	139	_ZN14BinaryTreeBaseIjP10THREADINFOE6InsertEPNS2_4NodeE
0x000849e6	195	_ZN14BinaryTreeBaseIjP10THREADINFOE7SetItemERKjRKS1_
0x00084c98	40	_ZN14BinaryTreeBaseIjP10THREADINFOEC1Ev
0x00084c98	40	_ZN14BinaryTreeBaseIjP10THREADINFOEC2Ev
0x00084d2c	48	_ZN14BinaryTreeBaseIjP10THREADINFOED0Ev
0x00084cc0	107	_ZN14BinaryTreeBaseIjP10THREADINFOED1Ev
0x00084cc0	107	_ZN14BinaryTreeBaseIjP10THREADINFOED2Ev
0x000900b6	88	_ZN14BinaryTreeBaseIjP8L6DeviceE10CreateNodeERKjRKS1_
0x0008fec8	95	_ZN14BinaryTreeBaseIjP8L6DeviceE10DeleteItemERKj
0x0008fc14	44	_ZN14BinaryTreeBaseIjP8L6DeviceE4Node7MinimumEv
0x0008fc50	120	_ZN14BinaryTreeBaseIjP8L6DeviceE4Node9SuccessorEv
0x000902c0	82	_ZN14BinaryTreeBaseIjP8L6DeviceE4NodeC1ERKjRKS1_
0x000902c0	82	_ZN14BinaryTreeBaseIjP8L6DeviceE4NodeC2ERKjRKS1_
0x0008fd60	48	_ZN14BinaryTreeBaseIjP8L6DeviceE4NodeD0Ev
0x0008fcc8	151	_ZN14BinaryTreeBaseIjP8L6DeviceE4NodeD1Ev
0x0008fcc8	151	_ZN14BinaryTreeBaseIjP8L6DeviceE4NodeD2Ev
0x0009019a	294	_ZN14BinaryTreeBaseIjP8L6DeviceE6DeleteEPNS2_4NodeE
0x0009010e	139	_ZN14BinaryTreeBaseIjP8L6DeviceE6InsertEPNS2_4NodeE
0x0008fe04	195	_ZN14BinaryTreeBaseIjP8L6DeviceE7SetItemERKjRKS1_
0x0008ffa6	40	_ZN14BinaryTreeBaseIjP8L6DeviceEC1Ev
0x0008ffa6	40	_ZN14BinaryTreeBaseIjP8L6DeviceEC2Ev
0x0009003a	48	_ZN14BinaryTreeBaseIjP8L6DeviceED0Ev
0x0008ffce	107	_ZN14BinaryTreeBaseIjP8L6DeviceED1Ev
0x0008ffce	107	_ZN14BinaryTreeBaseIjP8L6DeviceED2Ev
0x000b9c7a	85	_ZN15L6EdLibPresetV511RemoveParamEiRK9L6VariantS2_
0x000c3374	25	_ZN15L6EdLibPresetV511SetModifiedEb
0x000ba36e	605	_ZN15L6EdLibPresetV512ReadFromFileEPKvjbb
0x000b99a4	239	_ZN15L6EdLibPresetV513AddParamGroupEiRK9L6Variant
0x000b9e14	387	_ZN15L6EdLibPresetV513SetParamGroupEiRK9L6VariantRK17L6EdLibParamGroup
0x000bae44	10	_ZN15L6EdLibPresetV514ValidateParamsEv
0x000b9f98	514	_ZN15L6EdLibPresetV515ClearParamGroupEiRK9L6Variantb
0x000baab8	908	_ZN15L6EdLibPresetV515ReadFromDataObjERK9L6Variantbb
0x000bc374	1063	_ZN15L6EdLibPresetV515ReadParamGroupsEiRK9L6Variant
0x000b95da	23	_ZN15L6EdLibPresetV515setTargetDeviceEjj
0x000bc222	338	_ZN15L6EdLibPresetV516ReadGlobalParamsERK9L6Variant
0x000bae4e	686	_ZN15L6EdLibPresetV55ClearEhb
0x000b960a	408	_ZN15L6EdLibPresetV57SetPropERK9L6VariantS2_S2_
0x000b9a94	328	_ZN15L6EdLibPresetV58SetParamEiRK9L6VariantS2_S2_b
0x000b92e6	285	_ZN15L6EdLibPresetV5C1ERKS_
0x000b91fa	235	_ZN15L6EdLibPresetV5C1Ej
0x000b92e6	285	_ZN15L6EdLibPresetV5C2ERKS_
0x000b91fa	235	_ZN15L6EdLibPresetV5C2Ej
0x000b95aa	48	_ZN15L6EdLibPresetV5D0Ev
0x000b94d0	218	_ZN15L6EdLibPresetV5D1Ev
0x000b94d0	218	_ZN15L6EdLibPresetV5D2Ev
0x000b9404	204	_ZN15L6EdLibPresetV5aSERKS_
0x000e228a	119	_ZN15L6SPeParseDebug11HandleAssetEj
0x000e23f6	1593	_ZN15L6SPeParseDebug11HandlePSKeyEjP10TypedValue
0x000e2ab6	67	_ZN15L6SPeParseDebug13HandleSlotEndEj
0x000e2a30	134	_ZN15L6SPeParseDebug15HandleSlotStartEj
0x000e2b90	366	_ZN15L6SPeParseDebug16FormatTypedValueEPcP10TypedValuej
0x000e2b4c	67	_ZN15L6SPeParseDebug16HandleSectionEndE15PresetSectionIDj
0x000e2302	244	_ZN15L6SPeParseDebug16HandleStateValueEjP10TypedValue
0x000e2afa	81	_ZN15L6SPeParseDebug18HandleSectionStartE15PresetSectionIDj
0x000e2cfe	393	_ZN15L6SPeParseDebug7DoPrintEPKcz
0x000e21c0	79	_ZN15L6SPeParseDebugC1EPK11SymbolTableP8L6Buffer
0x000e21c0	79	_ZN15L6SPeParseDebugC2EPK11SymbolTableP8L6Buffer
0x000e225a	48	_ZN15L6SPeParseDebugD0Ev
0x000e2210	74	_ZN15L6SPeParseDebugD1Ev
0x000e2210	74	_ZN15L6SPeParseDebugD2Ev
0x000b27f4	600	_ZN16L6EdLibModelDefs10LoadScriptERK8L6Buffer
0x000b2a4c	343	_ZN16L6EdLibModelDefs17ApplyDeviceFilterEj
0x000b2e10	3297	_ZN16L6EdLibModelDefs23CheckParamValueForModelEPKNS_8ModelDefERK8L6StringRK9L6VariantRS6_
0x000b3af2	170	_ZN16L6EdLibModelDefs8AddModelERK8L6StringPK12L6DictionaryI9L6VariantS4_E
0x000b242e	172	_ZN16L6EdLibModelDefs8ModelDef8AddParamERK8L6StringPK12L6DictionaryI9L6VariantS5_E
0x000b213a	177	_ZN16L6EdLibModelDefs8ModelDefC1EPK12L6DictionaryI9L6VariantS2_E
0x000b213a	177	_ZN16L6EdLibModelDefs8ModelDefC2EPK12L6DictionaryI9L6VariantS2_E
0x000b21ec	220	_ZN16L6EdLibModelDefs8ModelDefD1Ev
0x000b21ec	220	_ZN16L6EdLibModelDefs8ModelDefD2Ev
0x000b1f54	89	_ZN16L6EdLibModelDefs8ParamDefC1EPK12L6DictionaryI9L6VariantS2_E
0x000b1f54	89	_ZN16L6EdLibModelDefs8ParamDefC2EPK12L6DictionaryI9L6VariantS2_E
0x000b1fae	37	_ZN16L6EdLibModelDefs8ParamDefD1Ev
0x000b1fae	37	_ZN16L6EdLibModelDefs8ParamDefD2Ev
0x000b2600	178	_ZN16L6EdLibModelDefsC1Ev
0x000b2600	178	_ZN16L6EdLibModelDefsC2Ev
0x000b27c4	48	_ZN16L6EdLibModelDefsD0Ev
0x000b26b2	273	_ZN16L6EdLibModelDefsD1Ev
0x000b26b2	273	_ZN16L6EdLibModelDefsD2Ev
0x000d8cea	88	_ZN16RedBlackTreeBaseI8L6String9L6VariantE10CreateNodeERKS0_RKS1_
0x000da45a	31	_ZN16RedBlackTreeBaseI8L6String9L6VariantE10RightColorEPN14BinaryTreeBaseIS0_S1_E4NodeE
0x000d9a06	149	_ZN16RedBlackTreeBaseI8L6String9L6VariantE10RotateLeftEPNS2_12RedBlackNodeE
0x000d9c24	779	_ZN16RedBlackTreeBaseI8L6String9L6VariantE11DeleteFixupEPNS2_12RedBlackNodeE
0x000d9a9c	149	_ZN16RedBlackTreeBaseI8L6String9L6VariantE11RotateRightEPNS2_12RedBlackNodeE
0x000d99ba	75	_ZN16RedBlackTreeBaseI8L6String9L6VariantE12RedBlackNodeC1ERKS0_RKS1_
0x000d99ba	75	_ZN16RedBlackTreeBaseI8L6String9L6VariantE12RedBlackNodeC2ERKS0_RKS1_
0x000d9b7c	48	_ZN16RedBlackTreeBaseI8L6String9L6VariantE12RedBlackNodeD0Ev
0x000d9b32	74	_ZN16RedBlackTreeBaseI8L6String9L6VariantE12RedBlackNodeD1Ev
0x000d9b32	74	_ZN16RedBlackTreeBaseI8L6String9L6VariantE12RedBlackNodeD2Ev
0x000d8f46	703	_ZN16RedBlackTreeBaseI8L6String9L6VariantE6DeleteEPN14BinaryTreeBaseIS0_S1_E4NodeE
0x000d8d42	515	_ZN16RedBlackTreeBaseI8L6String9L6VariantE6InsertEPN14BinaryTreeBaseIS0_S1_E4NodeE
0x000da47a	31	_ZN16RedBlackTreeBaseI8L6String9L6VariantE9LeftColorEPN14BinaryTreeBaseIS0_S1_E4NodeE
0x000d806c	51	_ZN16RedBlackTreeBaseI8L6String9L6VariantEC1Ev
0x000d806c	51	_ZN16RedBlackTreeBaseI8L6String9L6VariantEC2Ev
0x000d80ea	48	_ZN16RedBlackTreeBaseI8L6String9L6VariantED0Ev
0x000d80a0	74	_ZN16RedBlackTreeBaseI8L6String9L6VariantED1Ev
0x000d80a0	74	_ZN16RedBlackTreeBaseI8L6String9L6VariantED2Ev
0x000d9398	88	_ZN16RedBlackTreeBaseI8L6StringP20A36EditBufferContextE10CreateNodeERKS0_RKS2_
0x000da49a	31	_ZN16RedBlackTreeBaseI8L6StringP20A36EditBufferContextE10RightColorEPN14BinaryTreeBaseIS0_S2_E4NodeE
0x000d9f7c	149	_ZN16RedBlackTreeBaseI8L6StringP20A36EditBufferContextE10RotateLeftEPNS3_12RedBlackNodeE
0x000da122	779	_ZN16RedBlackTreeBaseI8L6StringP20A36EditBufferContextE11DeleteFixupEPNS3_12RedBlackNodeE
0x000da012	149	_ZN16RedBlackTreeBaseI8L6StringP20A36EditBufferContextE11RotateRightEPNS3_12RedBlackNodeE
0x000d9f30	75	_ZN16RedBlackTreeBaseI8L6StringP20A36EditBufferContextE12RedBlackNodeC1ERKS0_RKS2_
0x000d9f30	75	_ZN16RedBlackTreeBaseI8L6StringP20A36EditBufferContextE12RedBlackNodeC2ERKS0_RKS2_
0x000da0f2	48	_ZN16RedBlackTreeBaseI8L6StringP20A36EditBufferContextE12RedBlackNodeD0Ev
0x000da0a8	74	_ZN16RedBlackTreeBaseI8L6StringP20A36EditBufferContextE12RedBlackNodeD1Ev
0x000da0a8	74	_ZN16RedBlackTreeBaseI8L6StringP20A36EditBufferContextE12RedBlackNodeD2Ev
0x000d95f4	616	_ZN16RedBlackTreeBaseI8L6StringP20A36EditBufferContextE6DeleteEPN14BinaryTreeBaseIS0_S2_E4NodeE
0x000d93f0	515	_ZN16RedBlackTreeBaseI8L6StringP20A36EditBufferContextE6InsertEPN14BinaryTreeBaseIS0_S2_E4NodeE
0x000da4ba	31	_ZN16RedBlackTreeBaseI8L6StringP20A36EditBufferContextE9LeftColorEPN14BinaryTreeBaseIS0_S2_E4NodeE
0x000d7cc0	51	_ZN16RedBlackTreeBaseI8L6StringP20A36EditBufferContextEC1Ev
0x000d7cc0	51	_ZN16RedBlackTreeBaseI8L6StringP20A36EditBufferContextEC2Ev
0x000d7d3e	48	_ZN16RedBlackTreeBaseI8L6StringP20A36EditBufferContextED0Ev
0x000d7cf4	74	_ZN16RedBlackTreeBaseI8L6StringP20A36EditBufferContextED1Ev
0x000d7cf4	74	_ZN16RedBlackTreeBaseI8L6StringP20A36EditBufferContextED2Ev
0x000be49c	88	_ZN16RedBlackTreeBaseI9L6Variant17L6EdLibParamGroupE10CreateNodeERKS0_RKS1_
0x000bef78	31	_ZN16RedBlackTreeBaseI9L6Variant17L6EdLibParamGroupE10RightColorEPN14BinaryTreeBaseIS0_S1_E4NodeE
0x000beac6	149	_ZN16RedBlackTreeBaseI9L6Variant17L6EdLibParamGroupE10RotateLeftEPNS2_12RedBlackNodeE
0x000bec6c	779	_ZN16RedBlackTreeBaseI9L6Variant17L6EdLibParamGroupE11DeleteFixupEPNS2_12RedBlackNodeE
0x000beb5c	149	_ZN16RedBlackTreeBaseI9L6Variant17L6EdLibParamGroupE11RotateRightEPNS2_12RedBlackNodeE
0x000bea7a	75	_ZN16RedBlackTreeBaseI9L6Variant17L6EdLibParamGroupE12RedBlackNodeC1ERKS0_RKS1_
0x000bea7a	75	_ZN16RedBlackTreeBaseI9L6Variant17L6EdLibParamGroupE12RedBlackNodeC2ERKS0_RKS1_
0x000bec3c	48	_ZN16RedBlackTreeBaseI9L6Variant17L6EdLibParamGroupE12RedBlackNodeD0Ev
0x000bebf2	74	_ZN16RedBlackTreeBaseI9L6Variant17L6EdLibParamGroupE12RedBlackNodeD1Ev
0x000bebf2	74	_ZN16RedBlackTreeBaseI9L6Variant17L6EdLibParamGroupE12RedBlackNodeD2Ev
0x000be6f8	897	_ZN16RedBlackTreeBaseI9L6Variant17L6EdLibParamGroupE6DeleteEPN14BinaryTreeBaseIS0_S1_E4NodeE
0x000be4f4	515	_ZN16RedBlackTreeBaseI9L6Variant17L6EdLibParamGroupE6InsertEPN14BinaryTreeBaseIS0_S1_E4NodeE
0x000bef98	31	_ZN16RedBlackTreeBaseI9L6Variant17L6EdLibParamGroupE9LeftColorEPN14BinaryTreeBaseIS0_S1_E4NodeE
0x000bdb9c	51	_ZN16RedBlackTreeBaseI9L6Variant17L6EdLibParamGroupEC1Ev
0x000bdb9c	51	_ZN16RedBlackTreeBaseI9L6Variant17L6EdLibParamGroupEC2Ev
0x000bdc1a	48	_ZN16RedBlackTreeBaseI9L6Variant17L6EdLibParamGroupED0Ev
0x000bdbd0	74	_ZN16RedBlackTreeBaseI9L6Variant17L6EdLibParamGroupED1Ev
0x000bdbd0	74	_ZN16RedBlackTreeBaseI9L6Variant17L6EdLibParamGroupED2Ev
0x0007bc08	88	_ZN16RedBlackTreeBaseI9L6VariantS0_E10CreateNodeERKS0_S3_
0x0007c7ba	31	_ZN16RedBlackTreeBaseI9L6VariantS0_E10RightColorEPN14BinaryTreeBaseIS0_S0_E4NodeE
0x0007c308	149	_ZN16RedBlackTreeBaseI9L6VariantS0_E10RotateLeftEPNS1_12RedBlackNodeE
0x0007c4ae	779	_ZN16RedBlackTreeBaseI9L6VariantS0_E11DeleteFixupEPNS1_12RedBlackNodeE
0x0007c39e	149	_ZN16RedBlackTreeBaseI9L6VariantS0_E11RotateRightEPNS1_12RedBlackNodeE
0x0007c2bc	75	_ZN16RedBlackTreeBaseI9L6VariantS0_E12RedBlackNodeC1ERKS0_S4_
0x0007c2bc	75	_ZN16RedBlackTreeBaseI9L6VariantS0_E12RedBlackNodeC2ERKS0_S4_
0x0007c47e	48	_ZN16RedBlackTreeBaseI9L6VariantS0_E12RedBlackNodeD0Ev
0x0007c434	74	_ZN16RedBlackTreeBaseI9L6VariantS0_E12RedBlackNodeD1Ev
0x0007c434	74	_ZN16RedBlackTreeBaseI9L6VariantS0_E12RedBlackNodeD2Ev
0x0007be64	709	_ZN16RedBlackTreeBaseI9L6VariantS0_E6DeleteEPN14BinaryTreeBaseIS0_S0_E4NodeE
0x0007bc60	515	_ZN16RedBlackTreeBaseI9L6VariantS0_E6InsertEPN14BinaryTreeBaseIS0_S0_E4NodeE
0x0007c7da	31	_ZN16RedBlackTreeBaseI9L6VariantS0_E9LeftColorEPN14BinaryTreeBaseIS0_S0_E4NodeE
0x0007a85c	51	_ZN16RedBlackTreeBaseI9L6VariantS0_EC1Ev
0x0007a85c	51	_ZN16RedBlackTreeBaseI9L6VariantS0_EC2Ev
0x0007a8da	48	_ZN16RedBlackTreeBaseI9L6VariantS0_ED0Ev
0x0007a890	74	_ZN16RedBlackTreeBaseI9L6VariantS0_ED1Ev
0x0007a890	74	_ZN16RedBlackTreeBaseI9L6VariantS0_ED2Ev
0x000cce0e	88	_ZN16RedBlackTreeBaseIj9L6VariantE10CreateNodeERKjRKS0_
0x000cd9d2	31	_ZN16RedBlackTreeBaseIj9L6VariantE10RightColorEPN14BinaryTreeBaseIjS0_E4NodeE
0x000cd47c	149	_ZN16RedBlackTreeBaseIj9L6VariantE10RotateLeftEPNS1_12RedBlackNodeE
0x000cd69a	779	_ZN16RedBlackTreeBaseIj9L6VariantE11DeleteFixupEPNS1_12RedBlackNodeE
0x000cd512	149	_ZN16RedBlackTreeBaseIj9L6VariantE11RotateRightEPNS1_12RedBlackNodeE
0x000cd430	75	_ZN16RedBlackTreeBaseIj9L6VariantE12RedBlackNodeC1ERKjRKS0_
0x000cd430	75	_ZN16RedBlackTreeBaseIj9L6VariantE12RedBlackNodeC2ERKjRKS0_
0x000cd5f2	48	_ZN16RedBlackTreeBaseIj9L6VariantE12RedBlackNodeD0Ev
0x000cd5a8	74	_ZN16RedBlackTreeBaseIj9L6VariantE12RedBlackNodeD1Ev
0x000cd5a8	74	_ZN16RedBlackTreeBaseIj9L6VariantE12RedBlackNodeD2Ev
0x000cd06a	616	_ZN16RedBlackTreeBaseIj9L6VariantE6DeleteEPN14BinaryTreeBaseIjS0_E4NodeE
0x000cce66	515	_ZN16RedBlackTreeBaseIj9L6VariantE6InsertEPN14BinaryTreeBaseIjS0_E4NodeE
0x000cd9f2	31	_ZN16RedBlackTreeBaseIj9L6VariantE9LeftColorEPN14BinaryTreeBaseIjS0_E4NodeE
0x000cc25c	51	_ZN16RedBlackTreeBaseIj9L6VariantEC1Ev
0x000cc25c	51	_ZN16RedBlackTreeBaseIj9L6VariantEC2Ev
0x000cc2da	48	_ZN16RedBlackTreeBaseIj9L6VariantED0Ev
0x000cc290	74	_ZN16RedBlackTreeBaseIj9L6VariantED1Ev
0x000cc290	74	_ZN16RedBlackTreeBaseIj9L6VariantED2Ev
0x00085126	88	_ZN16RedBlackTreeBaseIjP10THREADINFOE10CreateNodeERKjRKS1_
0x00085a94	31	_ZN16RedBlackTreeBaseIjP10THREADINFOE10RightColorEPN14BinaryTreeBaseIjS1_E4NodeE
0x000855e2	149	_ZN16RedBlackTreeBaseIjP10THREADINFOE10RotateLeftEPNS2_12RedBlackNodeE
0x00085788	779	_ZN16RedBlackTreeBaseIjP10THREADINFOE11DeleteFixupEPNS2_12RedBlackNodeE
0x00085678	149	_ZN16RedBlackTreeBaseIjP10THREADINFOE11RotateRightEPNS2_12RedBlackNodeE
0x00085596	75	_ZN16RedBlackTreeBaseIjP10THREADINFOE12RedBlackNodeC1ERKjRKS1_
0x00085596	75	_ZN16RedBlackTreeBaseIjP10THREADINFOE12RedBlackNodeC2ERKjRKS1_
0x00085758	48	_ZN16RedBlackTreeBaseIjP10THREADINFOE12RedBlackNodeD0Ev
0x0008570e	74	_ZN16RedBlackTreeBaseIjP10THREADINFOE12RedBlackNodeD1Ev
0x0008570e	74	_ZN16RedBlackTreeBaseIjP10THREADINFOE12RedBlackNodeD2Ev
0x00085382	531	_ZN16RedBlackTreeBaseIjP10THREADINFOE6DeleteEPN14BinaryTreeBaseIjS1_E4NodeE
0x0008517e	515	_ZN16RedBlackTreeBaseIjP10THREADINFOE6InsertEPN14BinaryTreeBaseIjS1_E4NodeE
0x00085ab4	31	_ZN16RedBlackTreeBaseIjP10THREADINFOE9LeftColorEPN14BinaryTreeBaseIjS1_E4NodeE
0x00084938	51	_ZN16RedBlackTreeBaseIjP10THREADINFOEC1Ev
0x00084938	51	_ZN16RedBlackTreeBaseIjP10THREADINFOEC2Ev
0x000849b6	48	_ZN16RedBlackTreeBaseIjP10THREADINFOED0Ev
0x0008496c	74	_ZN16RedBlackTreeBaseIjP10THREADINFOED1Ev
0x0008496c	74	_ZN16RedBlackTreeBaseIjP10THREADINFOED2Ev
0x00090974	88	_ZN16RedBlackTreeBaseIjP8L6DeviceE10CreateNodeERKjRKS1_
0x000912e2	31	_ZN16RedBlackTreeBaseIjP8L6DeviceE10RightColorEPN14BinaryTreeBaseIjS1_E4NodeE
0x00090e30	149	_ZN16RedBlackTreeBaseIjP8L6DeviceE10RotateLeftEPNS2_12RedBlackNodeE
0x00090fd6	779	_ZN16RedBlackTreeBaseIjP8L6DeviceE11DeleteFixupEPNS2_12RedBlackNodeE
0x00090ec6	149	_ZN16RedBlackTreeBaseIjP8L6DeviceE11RotateRightEPNS2_12RedBlackNodeE
0x00090de4	75	_ZN16RedBlackTreeBaseIjP8L6DeviceE12RedBlackNodeC1ERKjRKS1_
0x00090de4	75	_ZN16RedBlackTreeBaseIjP8L6DeviceE12RedBlackNodeC2ERKjRKS1_
0x00090fa6	48	_ZN16RedBlackTreeBaseIjP8L6DeviceE12RedBlackNodeD0Ev
0x00090f5c	74	_ZN16RedBlackTreeBaseIjP8L6DeviceE12RedBlackNodeD1Ev
0x00090f5c	74	_ZN16RedBlackTreeBaseIjP8L6DeviceE12RedBlackNodeD2Ev
0x00090bd0	531	_ZN16RedBlackTreeBaseIjP8L6DeviceE6DeleteEPN14BinaryTreeBaseIjS1_E4NodeE
0x000909cc	515	_ZN16RedBlackTreeBaseIjP8L6DeviceE6InsertEPN14BinaryTreeBaseIjS1_E4NodeE
0x00091302	31	_ZN16RedBlackTreeBaseIjP8L6DeviceE9LeftColorEPN14BinaryTreeBaseIjS1_E4NodeE
0x0008fb66	51	_ZN16RedBlackTreeBaseIjP8L6DeviceEC1Ev
0x0008fb66	51	_ZN16RedBlackTreeBaseIjP8L6DeviceEC2Ev
0x0008fbe4	48	_ZN16RedBlackTreeBaseIjP8L6DeviceED0Ev
0x0008fb9a	74	_ZN16RedBlackTreeBaseIjP8L6DeviceED1Ev
0x0008fb9a	74	_ZN16RedBlackTreeBaseIjP8L6DeviceED2Ev
0x00099104	106	_ZN16StreamSerializer13SerializeElemEPvjj
0x000990f8	12	_ZN16StreamSerializer9IsWritingEv
0x00097448	21	_ZN16StreamSerializerC1EP8InStream
0x0009745e	21	_ZN16StreamSerializerC1EP9OutStream
0x00097448	21	_ZN16StreamSerializerC2EP8InStream
0x0009745e	21	_ZN16StreamSerializerC2EP9OutStream
0x000a8bd4	170	_ZN17Checksum_Fletcher10DoChecksumEPKvjj
0x000ab026	66	_ZN17Checksum_Fletcher10DoChecksumIhEEvPKT_j
0x000aafa6	62	_ZN17Checksum_Fletcher10DoChecksumIjEEvPKT_j
0x000aafe4	66	_ZN17Checksum_Fletcher10DoChecksumItEEvPKT_j
0x000a8bbc	24	_ZN17Checksum_FletcherC1Ev
0x000a8bbc	24	_ZN17Checksum_FletcherC2Ev
0x00073c0c	30	_ZN17ISppOutStreamSinkC1Ev
0x00073c0c	30	_ZN17ISppOutStreamSinkC2Ev
0x00073a7a	48	_ZN17ISppOutStreamSinkD0Ev
0x00073a3a	63	_ZN17ISppOutStreamSinkD1Ev
0x00073a3a	63	_ZN17ISppOutStreamSinkD2Ev
0x00098316	2014	_ZN17L6BspUpdateEngine10UpdateProcEv
0x00097c6e	358	_ZN17L6BspUpdateEngine11StartUpdateEP14MsgPort_StreamPFvifiPvES2_PKvj
0x00097e60	43	_ZN17L6BspUpdateEngine12CancelUpdateEv
0x00097e1a	69	_ZN17L6BspUpdateEngine12FinishUpdateEv
0x00097dd4	70	_ZN17L6BspUpdateEngine13CleanupUpdateEv
0x00097ec8	1045	_ZN17L6BspUpdateEngine14ReadFlashImageEPKvjR6HeaderR7L6ArrayI8DataInfoERPhRj
0x00097e8c	59	_ZN17L6BspUpdateEngine14UpdateProgressEf
0x00097bce	74	_ZN17L6BspUpdateEngineC1Ev
0x00097bce	74	_ZN17L6BspUpdateEngineC2Ev
0x00097c18	31	_ZN17L6BspUpdateEngineD1Ev
0x00097c18	31	_ZN17L6BspUpdateEngineD2Ev
0x000ae87e	75	_ZN17L6DevLibIFFReader10ReadFourCCEPj
0x000ae81c	97	_ZN17L6DevLibIFFReader10ReadUINT32EPj
0x000ae3f6	346	_ZN17L6DevLibIFFReader13SeekContainerEjj
0x000ae792	137	_ZN17L6DevLibIFFReader15ReadChunkHeaderEPjS0_
0x000ae676	283	_ZN17L6DevLibIFFReader15ReadChunkOfTypeEjPvj
0x000adeaa	124	_ZN17L6DevLibIFFReader17CheckDescendChunkEjj
0x000ae8ca	299	_ZN17L6DevLibIFFReader4ReadEPvj
0x000adf26	196	_ZN17L6DevLibIFFReader6AscendEb
0x000add44	357	_ZN17L6DevLibIFFReader7DescendEv
0x000aec18	5	_ZN17L6DevLibIFFReader8CONTINFOD1Ev
0x000aec18	5	_ZN17L6DevLibIFFReader8CONTINFOD2Ev
0x000adfea	399	_ZN17L6DevLibIFFReader9PeekChunkEPjS0_S0_
0x000ae550	294	_ZN17L6DevLibIFFReader9ReadChunkEPjS0_Pvj
0x000ae2b8	317	_ZN17L6DevLibIFFReader9SeekChunkEj
0x000ae17a	318	_ZN17L6DevLibIFFReader9SkipChunkEv
0x000adc76	79	_ZN17L6DevLibIFFReaderC1EP7IL6Fileb
0x000adc76	79	_ZN17L6DevLibIFFReaderC2EP7IL6Fileb
0x000add14	48	_ZN17L6DevLibIFFReaderD0Ev
0x000adcc6	77	_ZN17L6DevLibIFFReaderD1Ev
0x000adcc6	77	_ZN17L6DevLibIFFReaderD2Ev
0x000b8f36	557	_ZN17L6EdLibParamGroup11RemoveParamERK9L6Variant
0x000b9164	150	_ZN17L6EdLibParamGroup5ClearEv
0x000b8470	51	_ZN17L6EdLibParamGroup5PARAMC1Ev
0x000b8470	51	_ZN17L6EdLibParamGroup5PARAMC2Ev
0x000b85fc	76	_ZN17L6EdLibParamGroup5PARAMD1Ev
0x000b85fc	76	_ZN17L6EdLibParamGroup5PARAMD2Ev
0x000b8648	1051	_ZN17L6EdLibParamGroup8AddParamERK9L6VariantS2_
0x000b8a64	664	_ZN17L6EdLibParamGroup8SetParamERK9L6VariantS2_b
0x000b82c6	154	_ZN17L6EdLibParamGroupC1ERKS_
0x000b8252	116	_ZN17L6EdLibParamGroupC1Ej
0x000b82c6	154	_ZN17L6EdLibParamGroupC2ERKS_
0x000b8252	116	_ZN17L6EdLibParamGroupC2Ej
0x000b84a4	111	_ZN17L6EdLibParamGroupD1Ev
0x000b84a4	111	_ZN17L6EdLibParamGroupD2Ev
0x000b8360	272	_ZN17L6EdLibParamGroupaSERKS_
0x000d14dc	147	_ZN18A36EditorLibrarian10disconnectEv
0x000d00dc	1586	_ZN18A36EditorLibrarian10initializeERK8L6String
0x000d46f6	113	_ZN18A36EditorLibrarian11engageTunerEb
0x000d5c44	513	_ZN18A36EditorLibrarian11getResourceERK8L6StringR8L6Buffer
0x000d5be6	93	_ZN18A36EditorLibrarian11setResourceERK8L6StringRK8L6BufferS2_
0x000d5b34	177	_ZN18A36EditorLibrarian12copyResourceERK8L6StringS2_
0x000c3716	11	_ZN18A36EditorLibrarian12getModelDefsEv
0x000d1cfe	230	_ZN18A36EditorLibrarian12getModelInfoERK9L6VariantRS0_
0x000d1c6c	145	_ZN18A36EditorLibrarian12getModelListER7L6ArrayI9L6VariantE
0x000d1de4	317	_ZN18A36EditorLibrarian12getParamInfoERK9L6VariantS2_RS0_
0x000d5e46	654	_ZN18A36EditorLibrarian12moveResourceERK8L6Stringj
0x000d0a94	10	_ZN18A36EditorLibrarian12setClientAppERK8L6Stringj
0x000d4778	1615	_ZN18A36EditorLibrarian13getPresetUUIDERK8L6StringRy
0x000cfe9c	576	_ZN18A36EditorLibrarian13onThreadEventEjiiPv
0x000d4768	15	_ZN18A36EditorLibrarian14isTunerEngagedEv
0x000d63de	10	_ZN18A36EditorLibrarian14removeResourceERK8L6String
0x000d1fee	10	_ZN18A36EditorLibrarian15clearEditBufferEv
0x000d6d86	922	_ZN18A36EditorLibrarian15getResourceDataERK8L6StringR8L6BufferRi
0x000d54aa	1674	_ZN18A36EditorLibrarian15getResourceNameERK8L6StringRS0_
0x000d641c	2410	_ZN18A36EditorLibrarian15setResourceDataERK8L6BufferiRK8L6String
0x000d4dc8	1762	_ZN18A36EditorLibrarian15setResourceNameERK8L6StringS2_
0x000d192c	831	_ZN18A36EditorLibrarian16getDeviceSettingERK9L6VariantRS0_
0x000d464c	145	_ZN18A36EditorLibrarian16getEditBufferUriEv
0x000d60d4	777	_ZN18A36EditorLibrarian16getResourceCountERK8L6StringRj
0x000d3be4	1034	_ZN18A36EditorLibrarian16saveEditBufferToERK8L6String
0x000d15ac	896	_ZN18A36EditorLibrarian16setDeviceSettingERK9L6VariantS2_
0x000d1598	10	_ZN18A36EditorLibrarian16setRuntimeOptionEiRK9L6Variant
0x000d46de	23	_ZN18A36EditorLibrarian16setTunerDelegateEP19IEdLibTunerDelegatePv
0x000d2ef2	10	_ZN18A36EditorLibrarian17addEditBufferItemEiR9L6VariantRKS0_j
0x000d63e8	52	_ZN18A36EditorLibrarian18getDevicePresetUriER8L6String
0x000d26b8	401	_ZN18A36EditorLibrarian18getEditBufferParamEiRK9L6VariantS2_RS0_
0x000cf576	2332	_ZN18A36EditorLibrarian18handleNotificationERK8L6StringRK9L6VariantPv
0x000d3fee	1208	_ZN18A36EditorLibrarian18loadEditBufferFromERK8L6String
0x000d2c8e	612	_ZN18A36EditorLibrarian18moveEditBufferItemEiRK9L6VariantS2_j
0x000d2486	561	_ZN18A36EditorLibrarian18setEditBufferParamEiRK9L6VariantS2_S2_j
0x000d7240	435	_ZN18A36EditorLibrarian19engageTunerInternalEbb
0x000d3002	196	_ZN18A36EditorLibrarian19getResourceMetaDataERK8L6StringR9L6Variant
0x000d3474	570	_ZN18A36EditorLibrarian19setMetaDataToBufferER8L6BufferRK9L6Variantb
0x000d2f06	251	_ZN18A36EditorLibrarian19setResourceMetaDataERK8L6StringRK9L6Variantb
0x000d291e	344	_ZN18A36EditorLibrarian20getEditBufferMetaTagERK9L6VariantRS0_
0x000d1f22	102	_ZN18A36EditorLibrarian20isEditBufferModifiedEv
0x000d2efc	10	_ZN18A36EditorLibrarian20removeEditBufferItemEiRK9L6Variantj
0x000d285e	191	_ZN18A36EditorLibrarian20setEditBufferMetaTagERK9L6VariantS2_
0x000d2b36	344	_ZN18A36EditorLibrarian21getEditBufferPropertyERK9L6VariantRS0_
0x000d36ae	572	_ZN18A36EditorLibrarian21getMetaDataFromBufferERK8L6BufferR9L6Variant
0x000c3708	13	_ZN18A36EditorLibrarian21getNotificationCenterEv
0x000d1f88	102	_ZN18A36EditorLibrarian21setEditBufferModifiedEb
0x000d2a76	191	_ZN18A36EditorLibrarian21setEditBufferPropertyERK9L6VariantS2_
0x000d284a	19	_ZN18A36EditorLibrarian23getEditBufferParamCountEiRK9L6VariantS2_Rj
0x000d3bb0	51	_ZN18A36EditorLibrarian23getPresetBufferMetaDataERK8L6BufferRK9L6VariantRS3_
0x000d3296	477	_ZN18A36EditorLibrarian23getResourceMetaDataItemERK8L6StringRK9L6VariantRS3_
0x000d38ea	319	_ZN18A36EditorLibrarian23setMetaDataItemToBufferER8L6BufferRK9L6VariantS4_
0x000d1580	23	_ZN18A36EditorLibrarian23setNotificationDelegateEP26IEdLibNotificationDelegatePv
0x000d3b7c	51	_ZN18A36EditorLibrarian23setPresetBufferMetaDataER8L6BufferRK9L6VariantS4_
0x000d30c6	463	_ZN18A36EditorLibrarian23setResourceMetaDataItemERK8L6StringRK9L6VariantS5_
0x000d1ff8	775	_ZN18A36EditorLibrarian24getEditBufferParamGroupsEiR7L6ArrayI9L6VariantE
0x000d3a2a	337	_ZN18A36EditorLibrarian25getMetaDataItemFromBufferERK8L6BufferRK9L6VariantRS3_
0x000d44a6	209	_ZN18A36EditorLibrarian26saveEditBufferToDataBufferER8L6Bufferj
0x000d4578	212	_ZN18A36EditorLibrarian28loadEditBufferFromDataBufferERK8L6Buffer
0x000d2300	389	_ZN18A36EditorLibrarian29getEditBufferParamIDsForGroupEiRK9L6VariantR7L6ArrayIS0_E
0x000d7120	287	_ZN18A36EditorLibrarian33shouldReflectNotificationToClientERK8L6StringPv
0x000d0a9e	2621	_ZN18A36EditorLibrarian7connectERK8L6StringjjPjPP11IDevicePortj
0x000d070e	902	_ZN18A36EditorLibrarian9terminateEv
0x000cf124	552	_ZN18A36EditorLibrarianC1Ev
0x000cf124	552	_ZN18A36EditorLibrarianC2Ev
0x000cf53c	48	_ZN18A36EditorLibrarianD0Ev
0x000cf360	456	_ZN18A36EditorLibrarianD1Ev
0x000cf360	456	_ZN18A36EditorLibrarianD2Ev
0x000ce00e	63	_ZN18IL6EditorLibrarian18setEditBufferParamEiRK9L6VariantS2_S2_
0x000cf0ca	30	_ZN18IL6EditorLibrarianC1Ev
0x000cf0ca	30	_ZN18IL6EditorLibrarianC2Ev
0x000cdfde	48	_ZN18IL6EditorLibrarianD0Ev
0x000cdf9e	63	_ZN18IL6EditorLibrarianD1Ev
0x000cdf9e	63	_ZN18IL6EditorLibrarianD2Ev
0x00095558	368	_ZN18L6AndroidNdkDevice10disconnectEv
0x00094ca2	1222	_ZN18L6AndroidNdkDevice10initializeEP16L6PlatformObjectPFbR9L6VariantE
0x000947be	10	_ZN18L6AndroidNdkDevice10matchesObjEP16L6PlatformObject
0x000956c8	280	_ZN18L6AndroidNdkDevice10openHelperEv
0x000958b2	206	_ZN18L6AndroidNdkDevice11closeHelperEv
0x00095168	75	_ZN18L6AndroidNdkDevice11setDelegateEP17ISppOutStreamSink
0x00096524	836	_ZN18L6AndroidNdkDevice11startUpdateER8L6Bufferj
0x0009625c	387	_ZN18L6AndroidNdkDevice13changeToStateE12Device_Statei
0x000954ee	106	_ZN18L6AndroidNdkDevice14connectWithObjEP16L6PlatformObject
0x000947c8	10	_ZN18L6AndroidNdkDevice14getPlatformObjEv
0x000959dc	80	_ZN18L6AndroidNdkDevice14getPortForModeE9ePortMode
0x000947d2	5	_ZN18L6AndroidNdkDevice14setPlatformObjEP16L6PlatformObject
0x000964c8	92	_ZN18L6AndroidNdkDevice16SppOutStreamDataEi
0x00095a2c	676	_ZN18L6AndroidNdkDevice18prepareForUpdatingEv
0x000963e0	20	_ZN18L6AndroidNdkDevice19forceFirmwareUpdateEb
0x000951b4	826	_ZN18L6AndroidNdkDevice20connectWithObjHelperE9ePortModeS0_
0x00095cd0	1090	_ZN18L6AndroidNdkDevice20prepareForDeviceInfoEv
0x00096458	112	_ZN18L6AndroidNdkDevice21SppOutStreamDataCountEv
0x0009611c	320	_ZN18L6AndroidNdkDevice22handlePortNotificationEP11IDevicePortRK8L6StringRK9L6Variant
0x00096868	1177	_ZN18L6AndroidNdkDevice26handleUpdateEngineCallbackEifi
0x00094b14	397	_ZN18L6AndroidNdkDevice29setupMessageChannelParametersEv
0x000957e0	210	_ZN18L6AndroidNdkDevice4openEv
0x00095980	92	_ZN18L6AndroidNdkDevice5closeEv
0x000963f4	99	_ZN18L6AndroidNdkDevice9SppInDataEPhi
0x000948ae	332	_ZN18L6AndroidNdkDeviceC1EP22L6DeviceCenter_Androidj
0x000948ae	332	_ZN18L6AndroidNdkDeviceC2EP22L6DeviceCenter_Androidj
0x00094ae4	48	_ZN18L6AndroidNdkDeviceD0Ev
0x00094a04	214	_ZN18L6AndroidNdkDeviceD1Ev
0x00094a04	214	_ZN18L6AndroidNdkDeviceD2Ev
0x0008c690	10	_ZN18L6DeviceCenterBase10disconnectEv
0x0008ca22	212	_ZN18L6DeviceCenterBase10initializeEbPFbR9L6VariantEb
0x0008c6d0	10	_ZN18L6DeviceCenterBase11startUpdateEjR8L6BufferR8L6StringPvj
0x0008c6da	10	_ZN18L6DeviceCenterBase12cancelUpdateEj
0x0008d034	75	_ZN18L6DeviceCenterBase12isDeviceAeonEj
0x0008d4e0	89	_ZN18L6DeviceCenterBase13getDeviceInfoEjR9L6Variant
0x0008d7aa	91	_ZN18L6DeviceCenterBase13getDevicePortEj9ePortMode
0x0008d67e	77	_ZN18L6DeviceCenterBase14getDeviceStateEj
0x0008ed30	104	_ZN18L6DeviceCenterBase14isDeviceActiveERK8L6String
0x0008d080	75	_ZN18L6DeviceCenterBase14isDeviceAeonFXEj
0x0008c69a	10	_ZN18L6DeviceCenterBase15enterBackgroundEv
0x0008c6a4	10	_ZN18L6DeviceCenterBase15enterForegroundEv
0x0008d76e	60	_ZN18L6DeviceCenterBase15getActiveDeviceEv
0x0008d0cc	75	_ZN18L6DeviceCenterBase15isDeviceAeonAmpEj
0x0008ce6c	75	_ZN18L6DeviceCenterBase15isDeviceAmplifiEj
0x0008deda	228	_ZN18L6DeviceCenterBase15isDevicePresentERK8L6String
0x0008d806	473	_ZN18L6DeviceCenterBase15setActiveDeviceEP8L6Deviceb
0x0008d6cc	162	_ZN18L6DeviceCenterBase15setActiveDeviceEjb
0x0008c75c	47	_ZN18L6DeviceCenterBase15watchThreadProcEPv
0x0008ee2a	299	_ZN18L6DeviceCenterBase16deviceFromHandleEj
0x0008cce2	15	_ZN18L6DeviceCenterBase16enumerateDevicesEb
0x0008f132	389	_ZN18L6DeviceCenterBase16handleFromDeviceEP8L6Device
0x0008d118	82	_ZN18L6DeviceCenterBase16isDeviceWirelessEj
0x0008dc60	555	_ZN18L6DeviceCenterBase16openActiveDeviceEv
0x0008de8c	77	_ZN18L6DeviceCenterBase17closeActiveDeviceEv
0x0008cfe8	75	_ZN18L6DeviceCenterBase17isDeviceAmplifi30Ej
0x0008ceb8	75	_ZN18L6DeviceCenterBase17isDeviceAmplifi75Ej
0x0008cf9c	75	_ZN18L6DeviceCenterBase17isDeviceAmplifiTTEj
0x0008d16a	82	_ZN18L6DeviceCenterBase17isDeviceCompositeEj
0x0008ed98	146	_ZN18L6DeviceCenterBase17isDeviceConnectedEj
0x0008cf04	75	_ZN18L6DeviceCenterBase18isDeviceAmplifi150Ej
0x0008d616	103	_ZN18L6DeviceCenterBase18isEnvironmentValidEj
0x0008caf6	491	_ZN18L6DeviceCenterBase18refreshDeviceListsEb
0x0008d1bc	592	_ZN18L6DeviceCenterBase19getConnectedDevicesER7L6ArrayIjE
0x0008d5a8	110	_ZN18L6DeviceCenterBase19getDeviceDriverInfoEjR9L6Variant
0x0008c6e4	5	_ZN18L6DeviceCenterBase19handleDeviceCrashedEP8L6Device
0x0008cf50	75	_ZN18L6DeviceCenterBase20isDeviceAmplifiFX100Ej
0x0008d53a	110	_ZN18L6DeviceCenterBase22getDeviceCompositeInfoEjR9L6Variant
0x0008d40c	211	_ZN18L6DeviceCenterBase22getDisconnectedDevicesER7L6ArrayIjE
0x0008c6bc	10	_ZN18L6DeviceCenterBase22preProcessDeviceChangeEv
0x0008c6ae	14	_ZN18L6DeviceCenterBase22setDeviceSelectionModeE19DeviceSelectionMode
0x0008dfbe	224	_ZN18L6DeviceCenterBase23isDeviceOnConnectedListEP16L6PlatformObject
0x0008c6c6	10	_ZN18L6DeviceCenterBase23postProcessDeviceChangeEv
0x0008db34	300	_ZN18L6DeviceCenterBase23setActiveDeviceFromNameERK8L6Stringb
0x0008f2b8	23	_ZN18L6DeviceCenterBase23setNotificationDelegateEP32IL6DeviceLibNotificationDelegatePv
0x0008d9e0	340	_ZN18L6DeviceCenterBase24setActiveDeviceFromIndexEib
0x0008f2d0	109	_ZN18L6DeviceCenterBase24signalClientNotificationEP8L6DeviceRK8L6StringRK9L6Variant
0x0008e09e	224	_ZN18L6DeviceCenterBase26isDeviceOnDisconnectedListEP16L6PlatformObject
0x0008ec8e	161	_ZN18L6DeviceCenterBase26requestDeviceReEnumerationEv
0x0008e17e	224	_ZN18L6DeviceCenterBase27isDeviceOnTransitioningListEP16L6PlatformObject
0x0008ef56	237	_ZN18L6DeviceCenterBase30connectedDeviceFromPlatformObjEP16L6PlatformObject
0x0008f044	237	_ZN18L6DeviceCenterBase33disconnectedDeviceFromPlatformObjEP16L6PlatformObject
0x0008ea90	509	_ZN18L6DeviceCenterBase37moveConnectedDeviceToDisconnectedListEP16L6PlatformObject
0x0008e7fc	660	_ZN18L6DeviceCenterBase37moveDisconnectedDeviceToConnectedListEP16L6PlatformObject
0x0008e25e	365	_ZN18L6DeviceCenterBase38moveTransitioningDeviceToConnectedListEP16L6PlatformObject
0x0008e3cc	355	_ZN18L6DeviceCenterBase41moveTransitioningDeviceToDisconnectedListEP16L6PlatformObject
0x0008e530	246	_ZN18L6DeviceCenterBase42moveAllConnectedDevicesToTransitioningListEv
0x0008e626	470	_ZN18L6DeviceCenterBase45moveAllTransitioningDevicesToDisconnectedListEv
0x0008c686	10	_ZN18L6DeviceCenterBase7connectEj
0x0008ccf2	378	_ZN18L6DeviceCenterBase9terminateEv
0x0008c7aa	307	_ZN18L6DeviceCenterBaseC1Ev
0x0008c7aa	307	_ZN18L6DeviceCenterBaseC2Ev
0x0008c9f2	48	_ZN18L6DeviceCenterBaseD0Ev
0x0008c8de	276	_ZN18L6DeviceCenterBaseD1Ev
0x0008c8de	276	_ZN18L6DeviceCenterBaseD2Ev
0x00097916	24	_ZN18L6MemoryFileStatic11getPositionEv
0x00097858	190	_ZN18L6MemoryFileStatic11setPositionEx9eSeekType
0x0009774a	77	_ZN18L6MemoryFileStatic4openEbbb
0x000977a2	162	_ZN18L6MemoryFileStatic4readEPvj
0x00097798	10	_ZN18L6MemoryFileStatic5closeEv
0x00097844	20	_ZN18L6MemoryFileStatic5writeEPKvj
0x00097948	20	_ZN18L6MemoryFileStatic6setEOFEv
0x0009792e	26	_ZN18L6MemoryFileStatic7getSizeEv
0x00097670	96	_ZN18L6MemoryFileStaticC1EPKvj
0x00097670	96	_ZN18L6MemoryFileStaticC2EPKvj
0x0009771a	48	_ZN18L6MemoryFileStaticD0Ev
0x000976d0	74	_ZN18L6MemoryFileStaticD1Ev
0x000976d0	74	_ZN18L6MemoryFileStaticD2Ev
0x00094890	30	_ZN19IDevicePortObserverC1Ev
0x00094890	30	_ZN19IDevicePortObserverC2Ev
0x0009478e	48	_ZN19IDevicePortObserverD0Ev
0x0009474e	63	_ZN19IDevicePortObserverD1Ev
0x0009474e	63	_ZN19IDevicePortObserverD2Ev
0x00073c2a	30	_ZN19IEdLibTunerDelegateC1Ev
0x00073c2a	30	_ZN19IEdLibTunerDelegateC2Ev
0x000ec014	40	_ZN19StateValueListEntryC1Ev
0x000ec014	40	_ZN19StateValueListEntryC2Ev
0x000ec03c	40	_ZN19StateValueListEntryD1Ev
0x000ec03c	40	_ZN19StateValueListEntryD2Ev
0x000c8400	267	_ZN20A36EditBufferContext11getMetaDataEPKc
0x000ca49e	117	_ZN20A36EditBufferContext11isConnectedEv
0x000c7d26	701	_ZN20A36EditBufferContext11setMetaDataEPKcRK9L6Variant
0x000c4b16	325	_ZN20A36EditBufferContext12bindServicesEP22ToneMatchEditorServiceP25ToneMatchLibrarianServiceb
0x000ce954	11	_ZN20A36EditBufferContext12getLastErrorEv
0x000c4d66	46	_ZN20A36EditBufferContext13lockPresetPtrEv
0x000c8618	1408	_ZN20A36EditBufferContext14bindTweakParamEPKcS1_bb
0x000c4c5c	131	_ZN20A36EditBufferContext14unbindServicesEv
0x000c850c	267	_ZN20A36EditBufferContext15getDatabaseDataEPKc
0x000c7fe4	701	_ZN20A36EditBufferContext15setDatabaseDataEPKcRK9L6Variant
0x000c4d94	40	_ZN20A36EditBufferContext15unlockPresetPtrEv
0x000c59fa	79	_ZN20A36EditBufferContext16isPresetModifiedEv
0x000c53a4	160	_ZN20A36EditBufferContext16savePresetToFileEbR8L6Buffer
0x000c3dfa	608	_ZN20A36EditBufferContext17consumeParamEventEPKcS1_RK9L6Variant
0x000c433c	734	_ZN20A36EditBufferContext17consumePatchEventEib
0x000c49a2	371	_ZN20A36EditBufferContext17consumeTunerEventEf
0x000c8b98	872	_ZN20A36EditBufferContext17isTweakAssignedToEPKcS1_
0x000caa7a	4770	_ZN20A36EditBufferContext17sendParamToDeviceEPKcS1_RK9L6Variant
0x000c5a4a	82	_ZN20A36EditBufferContext17setPresetModifiedEb
0x000c4ee8	1212	_ZN20A36EditBufferContext18loadPresetFromFileERK8L6Buffer
0x000c5796	612	_ZN20A36EditBufferContext18savePresetToDeviceEbj
0x000c8f00	99	_ZN20A36EditBufferContext18swapFXModelPrepareEv
0x000c9a5c	2625	_ZN20A36EditBufferContext19swapFXModelFinalizeEv
0x000c4248	243	_ZN20A36EditBufferContext20consumeTapTempoEventEf
0x000c5444	849	_ZN20A36EditBufferContext20loadPresetFromDeviceEj
0x000c8f64	2808	_ZN20A36EditBufferContext20swapFXModelOperationEPKcS1_
0x000ce960	13	_ZN20A36EditBufferContext22getPresetDeviceContextEv
0x000ca514	1004	_ZN20A36EditBufferContext22syncWithDeviceAsMasterEb
0x000c47b8	135	_ZN20A36EditBufferContext23consumePSKeyChangeEventE14presetPSKeyNumR9L6Variant
0x000cbd1c	586	_ZN20A36EditBufferContext25bindTweakOnDeviceForGroupEPKcS1_
0x000c405a	493	_ZN20A36EditBufferContext25consumeRootSlotParamEventEPKcRK9L6Variant
0x000ca900	377	_ZN20A36EditBufferContext25sendModelToDeviceForGroupEPKc
0x000c461a	414	_ZN20A36EditBufferContext26consumeFirmwareStatusEventE23FirmwareStatusEventType
0x000c4840	354	_ZN20A36EditBufferContext28consumeSysSettingChangeEventE20appSystemSettingsKeyR9L6Variant
0x000c4d58	13	_ZN20A36EditBufferContext6getUriEv
0x000c4d26	50	_ZN20A36EditBufferContext6setUriERK8L6String
0x000c82a2	349	_ZN20A36EditBufferContext8getParamEPKcS1_
0x000c6eda	3659	_ZN20A36EditBufferContext8setParamEPKcS1_RK9L6Variantbb
0x000c4ce0	70	_ZN20A36EditBufferContext9hasLooperEv
0x000c5a9c	5182	_ZN20A36EditBufferContext9loadModelEPKcS1_
0x000c4e96	81	_ZN20A36EditBufferContext9setPresetEPK11L6A36Preset
0x000c3a6e	569	_ZN20A36EditBufferContextC1EjjRK8L6String
0x000c3a6e	569	_ZN20A36EditBufferContextC2EjjRK8L6String
0x000c3dca	48	_ZN20A36EditBufferContextD0Ev
0x000c3ca8	290	_ZN20A36EditBufferContextD1Ev
0x000c3ca8	290	_ZN20A36EditBufferContextD2Ev
0x0007444a	715	_ZN20AmplifiRemoteManager10InitializeEP7_JavaVMP7_JNIEnvPKc
0x00074b7e	1058	_ZN20AmplifiRemoteManager10OpenOnLineEiii
0x00075a20	71	_ZN20AmplifiRemoteManager10TestThreadEPv
0x00078ade	436	_ZN20AmplifiRemoteManager10tunerValueEifPv
0x00074384	110	_ZN20AmplifiRemoteManager11GetInstanceEv
0x00074fa0	275	_ZN20AmplifiRemoteManager11OpenOffLineEiiii
0x00078c92	71	_ZN20AmplifiRemoteManager11TunerThreadEPv
0x000799f8	425	_ZN20AmplifiRemoteManager11debugEditorEv
0x000787c8	166	_ZN20AmplifiRemoteManager11engageTunerEb
0x00079708	193	_ZN20AmplifiRemoteManager11getResourceER8L6StringR8L6Buffer
0x000795fa	269	_ZN20AmplifiRemoteManager11setResourceER8L6StringR8L6Buffer
0x00079538	193	_ZN20AmplifiRemoteManager12copyResourceER8L6StringS1_
0x0007787e	190	_ZN20AmplifiRemoteManager12getModelInfoER9L6VariantS1_
0x000777c6	183	_ZN20AmplifiRemoteManager12getModelListER7L6ArrayI9L6VariantE
0x0007574c	201	_ZN20AmplifiRemoteManager12getModelNameEv
0x000754a0	139	_ZN20AmplifiRemoteManager12getProductIdEv
0x000797ca	193	_ZN20AmplifiRemoteManager12moveResourceER8L6Stringi
0x00078912	450	_ZN20AmplifiRemoteManager12tunerEngagedEbbPv
0x000792aa	210	_ZN20AmplifiRemoteManager13getPresetUUIDER8L6String
0x000743f2	88	_ZN20AmplifiRemoteManager14DeleteInstanceEv
0x00075682	201	_ZN20AmplifiRemoteManager14getProductNameEv
0x0007886e	154	_ZN20AmplifiRemoteManager14isTunerEngagedEv
0x00076a24	230	_ZN20AmplifiRemoteManager14setSppDelegateEP7_JNIEnvP8_jobject
0x00076b90	105	_ZN20AmplifiRemoteManager15SppInStreamDataEPhi
0x0007943e	250	_ZN20AmplifiRemoteManager15getResourceNameER8L6String
0x0007937c	193	_ZN20AmplifiRemoteManager15setResourceNameER8L6StringS1_
0x00076c3a	70	_ZN20AmplifiRemoteManager16SppOutStreamDataEi
0x00077708	190	_ZN20AmplifiRemoteManager16getDeviceSettingER9L6VariantS1_
0x0007852c	260	_ZN20AmplifiRemoteManager16getEditBufferUriEv
0x0007988c	200	_ZN20AmplifiRemoteManager16getResourceCountER8L6String
0x0007823c	186	_ZN20AmplifiRemoteManager16saveEditBufferToER8L6String
0x0007764a	190	_ZN20AmplifiRemoteManager16setDeviceSettingER9L6VariantS1_
0x00078696	306	_ZN20AmplifiRemoteManager16setTunerDelegateEP7_JNIEnvP8_jobject
0x00078cda	1488	_ZN20AmplifiRemoteManager17handleTunerEventsEv
0x00075a68	71	_ZN20AmplifiRemoteManager18NotificationThreadEPv
0x000750b4	737	_ZN20AmplifiRemoteManager18OpenFirmwareUpdateEii
0x00077b46	370	_ZN20AmplifiRemoteManager18getEditBufferParamER9L6VariantS1_S1_
0x0007552c	139	_ZN20AmplifiRemoteManager18getFirmwareVersionEv
0x000782f6	186	_ZN20AmplifiRemoteManager18loadEditBufferFromER8L6String
0x00077e78	210	_ZN20AmplifiRemoteManager18moveEditBufferItemER9L6VariantS1_
0x00077a74	209	_ZN20AmplifiRemoteManager18setEditBufferParamER9L6VariantS1_S1_
0x00076338	1682	_ZN20AmplifiRemoteManager19handleNotificationsEv
0x00079954	164	_ZN20AmplifiRemoteManager19startFirmwareUpdateER8L6Buffer
0x00078144	248	_ZN20AmplifiRemoteManager20getEditBufferMetaTagER8L6StringR9L6Variant
0x00075816	201	_ZN20AmplifiRemoteManager20getOfficialModelNameEv
0x0007793c	151	_ZN20AmplifiRemoteManager20isEditBufferModifiedEv
0x0007804c	248	_ZN20AmplifiRemoteManager20setEditBufferMetaTagER8L6StringR9L6Variant
0x00076bfa	63	_ZN20AmplifiRemoteManager21SppOutStreamDataCountEv
0x000779d4	160	_ZN20AmplifiRemoteManager21setEditBufferModifiedEb
0x00076b14	124	_ZN20AmplifiRemoteManager23ConsumeSppOutStreamDataEPhi
0x00076f9e	58	_ZN20AmplifiRemoteManager23handleEdLibNotificationERK8L6StringRK9L6VariantPv
0x00075ab0	2184	_ZN20AmplifiRemoteManager23handleTestNotificationsEv
0x0007593a	230	_ZN20AmplifiRemoteManager23setNotificationDelegateEP7_JNIEnvP8_jobject
0x00077f4a	258	_ZN20AmplifiRemoteManager23setPresetBufferMetaDataER8L6StringR9L6VariantR8L6Buffer
0x00077cb8	191	_ZN20AmplifiRemoteManager24getEditBufferParamGroupsER7L6ArrayI9L6VariantE
0x000769ca	89	_ZN20AmplifiRemoteManager25cleanupCurrentSppDelegateEP7_JNIEnv
0x0007701c	1581	_ZN20AmplifiRemoteManager25serviceNotificationHelperERK8L6StringRK9L6VariantPv
0x000755b8	201	_ZN20AmplifiRemoteManager26getFirmwareVersionAsStringEv
0x000783b0	194	_ZN20AmplifiRemoteManager26saveEditBufferToDataBufferER8L6Buffer
0x00078630	102	_ZN20AmplifiRemoteManager27cleanupCurrentTunerDelegateEP7_JNIEnv
0x00078472	186	_ZN20AmplifiRemoteManager28loadEditBufferFromDataBufferER8L6Buffer
0x00077d78	256	_ZN20AmplifiRemoteManager29getEditBufferParamIDsForGroupER8L6StringR7L6ArrayI9L6VariantE
0x00076fe2	58	_ZN20AmplifiRemoteManager29handleL6DeviceLibNotificationEjRK8L6StringRK9L6VariantPv
0x000758e0	89	_ZN20AmplifiRemoteManager34cleanupCurrentNotificationDelegateEP7_JNIEnv
0x00074a32	331	_ZN20AmplifiRemoteManager4OpenEiiiii
0x00075396	265	_ZN20AmplifiRemoteManager5CloseEv
0x00076c80	71	_ZN20AmplifiRemoteManager9SppThreadEPv
0x00074716	795	_ZN20AmplifiRemoteManager9TerminateEP7_JavaVMP7_JNIEnv
0x00076cc8	726	_ZN20AmplifiRemoteManager9handleSppEv
0x00073c48	1101	_ZN20AmplifiRemoteManagerC1Ev
0x00073c48	1101	_ZN20AmplifiRemoteManagerC2Ev
0x00074354	48	_ZN20AmplifiRemoteManagerD0Ev
0x000740a0	682	_ZN20AmplifiRemoteManagerD1Ev
0x000740a0	682	_ZN20AmplifiRemoteManagerD2Ev
0x00092b7a	48	_ZN20AndroidSppMsgChannel11HandleTimerEP6_Timer
0x00092a78	97	_ZN20AndroidSppMsgChannel11SetDelegateEP17ISppOutStreamSink
0x0009220c	11	_ZN20AndroidSppMsgChannel14GetChannelBaseEv
0x00092ada	160	_ZN20AndroidSppMsgChannel15handleSppThreadEv
0x0009330a	258	_ZN20AndroidSppMsgChannel16SppOutStreamDataEi
0x00092218	11	_ZN20AndroidSppMsgChannel18GetRsmcChannelBaseEv
0x0009340c	326	_ZN20AndroidSppMsgChannel19HandleSppOutputDataEv
0x00092f90	332	_ZN20AndroidSppMsgChannel21FormatRawDataForDebugEPKvi
0x000932b2	87	_ZN20AndroidSppMsgChannel21SppOutStreamDataCountEv
0x00093552	89	_ZN20AndroidSppMsgChannel25currentTimeInMillisecondsEv
0x00092ed0	192	_ZN20AndroidSppMsgChannel26AndroidSppMsgChannel_writeEP22RobustSerialMsgChannelPKvj
0x000930dc	117	_ZN20AndroidSppMsgChannel27AndroidSppMsgChannel_commitEP22RobustSerialMsgChannel
0x00093168	47	_ZN20AndroidSppMsgChannel32AndroidSppMsgChannel_handleInPktEP22RobustSerialMsgChannelP30RobustSerialMsgChannelRxPacket
0x00093198	67	_ZN20AndroidSppMsgChannel32AndroidSppMsgChannel_queueOutPktEP10MsgChannelP9MsgPacket
0x00093152	21	_ZN20AndroidSppMsgChannel32AndroidSppMsgChannel_requestTaskEP22RobustSerialMsgChannel
0x000931dc	96	_ZN20AndroidSppMsgChannel33AndroidSppMsgChannel_inPacketDoneEP10MsgChannelP16MsgChannelPacketi
0x00092baa	605	_ZN20AndroidSppMsgChannel4OpenEv
0x00092e08	199	_ZN20AndroidSppMsgChannel5CloseEv
0x0009323c	118	_ZN20AndroidSppMsgChannel9SppInDataEPhi
0x000935ac	830	_ZN20AndroidSppMsgChannel9execTasksEv
0x00092490	1029	_ZN20AndroidSppMsgChannelC1EP9BspRouteri
0x00092490	1029	_ZN20AndroidSppMsgChannelC2EP9BspRouteri
0x00092a48	48	_ZN20AndroidSppMsgChannelD0Ev
0x00092896	434	_ZN20AndroidSppMsgChannelD1Ev
0x00092896	434	_ZN20AndroidSppMsgChannelD2Ev
0x00091d5e	799	_ZN20L6BspMsgPort_Amplifi10changeModeE9ePortMode
0x00091d2a	51	_ZN20L6BspMsgPort_Amplifi18TranslateePortModeE9ePortMode
0x00091c24	262	_ZN20L6BspMsgPort_Amplifi4openEv
0x00091b24	93	_ZN20L6BspMsgPort_AmplifiC1E9ePortModejjii
0x00091b24	93	_ZN20L6BspMsgPort_AmplifiC2E9ePortModejjii
0x00091bf4	48	_ZN20L6BspMsgPort_AmplifiD0Ev
0x00091b82	113	_ZN20L6BspMsgPort_AmplifiD1Ev
0x00091b82	113	_ZN20L6BspMsgPort_AmplifiD2Ev
0x000f39d2	156	_ZN20ToneMatchEdit_Remote10GetVersionEPj
0x000f66e2	167	_ZN20ToneMatchEdit_Remote11HandleEventEP23toneMatchEditorInHeader
0x000f6c96	80	_ZN20ToneMatchEdit_Remote11SynchronizeEv
0x000f3e86	202	_ZN20ToneMatchEdit_Remote12LoadDspModelEjj
0x000f6ce6	275	_ZN20ToneMatchEdit_Remote12PurgePendingEv
0x000f5558	156	_ZN20ToneMatchEdit_Remote13GetDirtyStateEPj
0x000f53e0	202	_ZN20ToneMatchEdit_Remote14BindTweakParamEjj
0x000f3b0a	161	_ZN20ToneMatchEdit_Remote14GetSymbolTableEPcj
0x000f6b16	383	_ZN20ToneMatchEdit_Remote14HandleInPacketEv
0x000f64d8	522	_ZN20ToneMatchEdit_Remote14HandleResponseEP23toneMatchEditorInHeader
0x000f54aa	174	_ZN20ToneMatchEdit_Remote14SetGlobalTempoEf
0x000f3850	385	_ZN20ToneMatchEdit_Remote15DoCommandCommonE20toneMatchEditorCmdIDPKcj28toneMatchEditorInMessageTypePcjPP24toneMatchEditorXferToken
0x000f3f50	237	_ZN20ToneMatchEdit_Remote16GetDspModelParamEjjP25toneMatchEditorTypedValue
0x000f5ac0	215	_ZN20ToneMatchEdit_Remote16GetSystemSettingE20appSystemSettingsKeyP25toneMatchEditorTypedValue
0x000f6826	167	_ZN20ToneMatchEdit_Remote16HandleParamEventEP23toneMatchEditorInHeader
0x000f678a	155	_ZN20ToneMatchEdit_Remote16HandlePatchEventEP23toneMatchEditorInHeader
0x000f4ef6	258	_ZN20ToneMatchEdit_Remote16RegisterDspEventEjjPFiP25toneMatchEditorTypedValuePvES2_
0x000f40d2	150	_ZN20ToneMatchEdit_Remote16SetDspModelParamEjjP25toneMatchEditorTypedValue
0x000f5b98	188	_ZN20ToneMatchEdit_Remote16SetSystemSettingE20appSystemSettingsKeyP25toneMatchEditorTypedValue
0x000f5c54	270	_ZN20ToneMatchEdit_Remote17ProcessEventQueueEjjP25toneMatchEditorTypedValue
0x000f3a6e	156	_ZN20ToneMatchEdit_Remote18GetSymbolTableSizeEPj
0x000f503e	70	_ZN20ToneMatchEdit_Remote18RegisterParamEventEPFiP25toneMatchEditorTypedValuePvES2_
0x000f4ff8	70	_ZN20ToneMatchEdit_Remote18RegisterPatchEventEPFiP25toneMatchEditorTypedValuePvES2_
0x000f519c	244	_ZN20ToneMatchEdit_Remote18UnregisterDspEventEjj
0x000f3d16	168	_ZN20ToneMatchEdit_Remote19GetAddressableSlotsEPjj
0x000f58a8	215	_ZN20ToneMatchEdit_Remote19GetPresetPSKeyParamE14presetPSKeyNumP25toneMatchEditorTypedValue
0x000f68ce	145	_ZN20ToneMatchEdit_Remote19HandleTapTempoEventEP23toneMatchEditorInHeader
0x000f403e	148	_ZN20ToneMatchEdit_Remote19SetModelParamCommonEjjP25toneMatchEditorTypedValuePiPP24toneMatchEditorXferToken
0x000f5980	188	_ZN20ToneMatchEdit_Remote19SetPresetPSKeyParamE14presetPSKeyNumP25toneMatchEditorTypedValue
0x000f43b4	228	_ZN20ToneMatchEdit_Remote20AddEventToActiveListEjjPFiP25toneMatchEditorTypedValuePvES2_
0x000f6960	145	_ZN20ToneMatchEdit_Remote20HandleFbvStatusEventEP23toneMatchEditorInHeader
0x000f3dbe	200	_ZN20ToneMatchEdit_Remote20QueryCurrentDspModelEjPj
0x000f52c8	56	_ZN20ToneMatchEdit_Remote20UnregisterParamEventEv
0x000f5290	56	_ZN20ToneMatchEdit_Remote20UnregisterPatchEventEv
0x000f5690	215	_ZN20ToneMatchEdit_Remote21GetPersistentSysParamE21appPresetsSysParamKeyP25toneMatchEditorTypedValue
0x000f5084	70	_ZN20ToneMatchEdit_Remote21RegisterTapTempoEventEPFiP25toneMatchEditorTypedValuePvES2_
0x000f4168	74	_ZN20ToneMatchEdit_Remote21SetDspModelParamAsyncEjjP25toneMatchEditorTypedValue
0x000f5768	188	_ZN20ToneMatchEdit_Remote21SetPersistentSysParamE21appPresetsSysParamKeyP25toneMatchEditorTypedValue
0x000f4644	217	_ZN20ToneMatchEdit_Remote22AddEventToTapTempoListEPFiP25toneMatchEditorTypedValuePvES2_
0x000f3c7a	156	_ZN20ToneMatchEdit_Remote22GetNumAddressableSlotsEPj
0x000f69f2	145	_ZN20ToneMatchEdit_Remote22HandlePSKeyChangeEventEP23toneMatchEditorInHeader
0x000f5e76	275	_ZN20ToneMatchEdit_Remote22ProcessParamEventQueueEjjP25toneMatchEditorTypedValue
0x000f5d62	275	_ZN20ToneMatchEdit_Remote22ProcessPatchEventQueueEP25toneMatchEditorTypedValueS1_
0x000f50ca	70	_ZN20ToneMatchEdit_Remote22RegisterFbvStatusEventEPFiP25toneMatchEditorTypedValuePvES2_
0x000f471e	217	_ZN20ToneMatchEdit_Remote23AddEventToFbvStatusListEPFiP25toneMatchEditorTypedValuePvES2_
0x000f5300	56	_ZN20ToneMatchEdit_Remote23UnregisterTapTempoEventEv
0x000f55f4	156	_ZN20ToneMatchEdit_Remote24GetFbvConnectivityStatusEPj
0x000f5110	70	_ZN20ToneMatchEdit_Remote24RegisterPSKeyChangeEventEPFiP25toneMatchEditorTypedValuePvES2_
0x000f5a3c	131	_ZN20ToneMatchEdit_Remote24SetPresetPSKeyParamAsyncE14presetPSKeyNumP25toneMatchEditorTypedValue
0x000f5338	56	_ZN20ToneMatchEdit_Remote24UnregisterFbvStatusEventEv
0x000f47f8	217	_ZN20ToneMatchEdit_Remote25AddEventToPSKeyChangeListEPFiP25toneMatchEditorTypedValuePvES2_
0x000f456e	214	_ZN20ToneMatchEdit_Remote25AddEventToParamChangeListEPFiP25toneMatchEditorTypedValuePvES2_
0x000f4498	214	_ZN20ToneMatchEdit_Remote25AddEventToPatchChangeListEPFiP25toneMatchEditorTypedValuePvES2_
0x000f5f8a	251	_ZN20ToneMatchEdit_Remote25ProcessTapTempoEventQueueEP25toneMatchEditorTypedValue
0x000f49ac	189	_ZN20ToneMatchEdit_Remote25RemoveEventFromActiveListEjj
0x000f6086	251	_ZN20ToneMatchEdit_Remote26ProcessFbvStatusEventQueueEP25toneMatchEditorTypedValue
0x000f5824	131	_ZN20ToneMatchEdit_Remote26SetPersistentSysParamAsyncE21appPresetsSysParamKeyP25toneMatchEditorTypedValue
0x000f5370	56	_ZN20ToneMatchEdit_Remote26UnregisterPSKeyChangeEventEv
0x000f6a84	145	_ZN20ToneMatchEdit_Remote27HandleSysSettingChangeEventEP23toneMatchEditorInHeader
0x000f4be6	196	_ZN20ToneMatchEdit_Remote27RemoveEventFromTapTempoListEv
0x000f6182	295	_ZN20ToneMatchEdit_Remote28ProcessPSKeyChangeEventQueueEP25toneMatchPSKeyChangeEvent
0x000f4caa	196	_ZN20ToneMatchEdit_Remote28RemoveEventFromFbvStatusListEv
0x000f5156	70	_ZN20ToneMatchEdit_Remote29RegisterSysSettingChangeEventEPFiP25toneMatchEditorTypedValuePvES2_
0x000f48d2	217	_ZN20ToneMatchEdit_Remote30AddEventToSysSettingChangeListEPFiP25toneMatchEditorTypedValuePvES2_
0x000f4d6e	196	_ZN20ToneMatchEdit_Remote30RemoveEventFromPSKeyChangeListEv
0x000f4b28	189	_ZN20ToneMatchEdit_Remote30RemoveEventFromParamChangeListEv
0x000f4a6a	189	_ZN20ToneMatchEdit_Remote30RemoveEventFromPatchChangeListEv
0x000f53a8	56	_ZN20ToneMatchEdit_Remote31UnregisterSysSettingChangeEventEv
0x000f62aa	295	_ZN20ToneMatchEdit_Remote33ProcessSysSettingChangeEventQueueEP31toneMatchSysSettingsChangeEvent
0x000f4e32	196	_ZN20ToneMatchEdit_Remote35RemoveEventFromSysSettingChangeListEv
0x000f6dfa	579	_ZN20ToneMatchEdit_Remote4InitEP11IDevicePortjjj
0x000f3bac	205	_ZN20ToneMatchEdit_Remote9HandshakeEPcj
0x000f7064	484	_ZN20ToneMatchEdit_Remote9TerminateEv
0x000f726e	581	_ZN20ToneMatchEdit_RemoteC1Ev
0x000f726e	581	_ZN20ToneMatchEdit_RemoteC2Ev
0x000f76c6	48	_ZN20ToneMatchEdit_RemoteD0Ev
0x000f74b4	530	_ZN20ToneMatchEdit_RemoteD1Ev
0x000f74b4	530	_ZN20ToneMatchEdit_RemoteD2Ev
0x00097af4	139	_ZN20TonePlayProgressGlue10OnProgressEiib
0x00097bb6	23	_ZN20TonePlayProgressGlue11SetTaskInfoEii
0x00097b86	47	_ZN20TonePlayProgressGlue13OnProgressMsgEPKc
0x00097b80	5	_ZN20TonePlayProgressGlue15OnProgressStateEi
0x00097aa4	80	_ZN20TonePlayProgressGlueC1EP17L6BspUpdateEngine
0x00097aa4	80	_ZN20TonePlayProgressGlueC2EP17L6BspUpdateEngine
0x000f0eec	681	_ZN21L6SPePresetSerializer11ParsePresetEP25L6SPePresetParserDelegatePKcj
0x000f15a2	51	_ZN21L6SPePresetSerializer12StorePSValueEjP10TypedValue
0x000f13e4	110	_ZN21L6SPePresetSerializer12StoreSlotEndEv
0x000f03b0	111	_ZN21L6SPePresetSerializer13ParserBufReadEPvj
0x000f11c8	27	_ZN21L6SPePresetSerializer14EndPresetStoreEPj
0x000f0de8	259	_ZN21L6SPePresetSerializer14HandleDSPStateEv
0x000f1370	116	_ZN21L6SPePresetSerializer14StoreSlotStartEj
0x000f1452	283	_ZN21L6SPePresetSerializer15StoreAssetStateEjjP19StateValueListEntry
0x000f128e	110	_ZN21L6SPePresetSerializer15StoreSectionEndEv
0x000f1196	50	_ZN21L6SPePresetSerializer16StartPresetStoreEPcj
0x000f0a60	84	_ZN21L6SPePresetSerializer17SerializeKeyValueEjP10TypedValue
0x000f15d6	37	_ZN21L6SPePresetSerializer17StorePSSectionEndEv
0x000f11e4	169	_ZN21L6SPePresetSerializer17StoreSectionStartE15PresetSectionIDj
0x000f0420	121	_ZN21L6SPePresetSerializer18SerializerBufWriteEPKvj
0x000f1630	37	_ZN21L6SPePresetSerializer18StoreDSPSectionEndEv
0x000f12fc	116	_ZN21L6SPePresetSerializer18StoreRootSlotStartEj
0x000f0ab4	84	_ZN21L6SPePresetSerializer19DeserializeKeyValueEPjP10TypedValue
0x000f0b08	735	_ZN21L6SPePresetSerializer19HandleSlotDirectiveEj
0x000f05e6	233	_ZN21L6SPePresetSerializer19SerializeTypedValueEP10TypedValue
0x000f156e	52	_ZN21L6SPePresetSerializer19StorePSSectionBeginEj
0x000f049a	161	_ZN21L6SPePresetSerializer20SerializeStringValueEP10TypedValue
0x000f053c	170	_ZN21L6SPePresetSerializer20SerializeVArrayValueEP10TypedValue
0x000f15fc	52	_ZN21L6SPePresetSerializer20StoreDSPSectionBeginEj
0x000f08c0	415	_ZN21L6SPePresetSerializer21DeserializeTypedValueEP10TypedValue
0x000f06d0	250	_ZN21L6SPePresetSerializer22DeserializeStringValueEP10TypedValue
0x000f07ca	245	_ZN21L6SPePresetSerializer22DeserializeVArrayValueEP10TypedValue
0x000f0302	123	_ZN21L6SPePresetSerializerC1Ej
0x000f0302	123	_ZN21L6SPePresetSerializerC2Ej
0x000f037e	50	_ZN21L6SPePresetSerializerD1Ev
0x000f037e	50	_ZN21L6SPePresetSerializerD2Ev
0x00093aae	79	_ZN22L6DeviceCenter_Android10initializeEbPFbR9L6VariantE
0x000939ea	5	_ZN22L6DeviceCenter_Android11watchThreadEv
0x00093b12	19	_ZN22L6DeviceCenter_Android15enterBackgroundEv
0x00093b26	19	_ZN22L6DeviceCenter_Android15enterForegroundEv
0x000939f0	15	_ZN22L6DeviceCenter_Android16enumerateDevicesEb
0x00093b3a	19	_ZN22L6DeviceCenter_Android22preProcessDeviceChangeEv
0x00093b4e	19	_ZN22L6DeviceCenter_Android23postProcessDeviceChangeEv
0x00093afe	19	_ZN22L6DeviceCenter_Android9terminateEv
0x00093a00	51	_ZN22L6DeviceCenter_AndroidC1Ev
0x00093a00	51	_ZN22L6DeviceCenter_AndroidC2Ev
0x00093a7e	48	_ZN22L6DeviceCenter_AndroidD0Ev
0x00093a34	74	_ZN22L6DeviceCenter_AndroidD1Ev
0x00093a34	74	_ZN22L6DeviceCenter_AndroidD2Ev
0x000c3638	14	_ZN22ToneMatchEditorService11setDelegateEP23ToneMatchEditorDelegate
0x000c35fe	57	_ZN22ToneMatchEditorService14getSymbolTableEv
0x000f93fa	224	_ZN22ToneMatchEditorService16getSystemSettingE20appSystemSettingsKeyR9L6Variant
0x000f9c86	974	_ZN22ToneMatchEditorService16handleParamEventEPvP25toneMatchParamChangeEvent
0x000f9bc4	193	_ZN22ToneMatchEditorService16handlePatchEventEPvP25toneMatchPatchChangeEvent
0x000f9b52	114	_ZN22ToneMatchEditorService16handleTunerEventEPv
0x000f94da	161	_ZN22ToneMatchEditorService16setSystemSettingE20appSystemSettingsKeyRK9L6Variant
0x000f9808	148	_ZN22ToneMatchEditorService17completeHandshakeEv
0x000f8b1e	105	_ZN22ToneMatchEditorService17getToneMatchModelEPKcR8L6String
0x000f989c	694	_ZN22ToneMatchEditorService17handleTheCallbackE29FirmwareServiceCallbackReasoni
0x000f957c	652	_ZN22ToneMatchEditorService17registerForEventsEv
0x000f8b88	105	_ZN22ToneMatchEditorService17setToneMatchModelEPKcS1_
0x000f9278	224	_ZN22ToneMatchEditorService19getPresetPSKeyParamE14presetPSKeyNumR9L6Variant
0x000f8af6	40	_ZN22ToneMatchEditorService19getToneMatchVersionEv
0x000fa054	118	_ZN22ToneMatchEditorService19handleTapTempoEventEPv
0x000f8e3c	126	_ZN22ToneMatchEditorService19setFootswitchAssignEjPKcib
0x000f9358	161	_ZN22ToneMatchEditorService19setPresetPSKeyParamE14presetPSKeyNumRK9L6Variant
0x000fa0ca	145	_ZN22ToneMatchEditorService20handleFbvStatusEventEPv
0x000f9070	357	_ZN22ToneMatchEditorService21getPersistentSysParamE21appPresetsSysParamKeyR9L6Variant
0x000f91d6	161	_ZN22ToneMatchEditorService21setPersistentSysParamE21appPresetsSysParamKeyRK9L6Variant
0x000f8bf2	112	_ZN22ToneMatchEditorService22getToneMatchModelParamEPKcS1_R9L6Variant
0x000fa15c	444	_ZN22ToneMatchEditorService22handlePSKeyChangeEventEPvP25toneMatchPSKeyChangeEvent
0x000f8c62	132	_ZN22ToneMatchEditorService22setToneMatchModelParamEPKcS1_RK9L6Variantb
0x000f8fee	130	_ZN22ToneMatchEditorService23isToneMatchFbvConnectedERb
0x000f8ce6	98	_ZN22ToneMatchEditorService23setToneMatchGlobalTempoERK9L6Variant
0x000f8d48	138	_ZN22ToneMatchEditorService26isToneMatchEditBufferDirtyEPb
0x000fa318	444	_ZN22ToneMatchEditorService27handleSysSettingChangeEventEPvP31toneMatchSysSettingsChangeEvent
0x000f8eba	159	_ZN22ToneMatchEditorService27registerToneMatchTunerEventEv
0x000f8f5a	147	_ZN22ToneMatchEditorService29unregisterToneMatchTunerEventEv
0x000f89fa	252	_ZN22ToneMatchEditorService5closeEv
0x000f8dd2	105	_ZN22ToneMatchEditorService9bindTweakEPKcS1_
0x000f87f8	340	_ZN22ToneMatchEditorServiceC1ERK8L6StringS2_jjjP11IDevicePort
0x000f87f8	340	_ZN22ToneMatchEditorServiceC2ERK8L6StringS2_jjjP11IDevicePort
0x000f89ca	48	_ZN22ToneMatchEditorServiceD0Ev
0x000f894c	126	_ZN22ToneMatchEditorServiceD1Ev
0x000f894c	126	_ZN22ToneMatchEditorServiceD2Ev
0x000ce71c	495	_ZN23L6EdLibThreadEventQueue11threadBeginEPv
0x000ce43c	96	_ZN23L6EdLibThreadEventQueue11waitForExitEj
0x000ce50e	337	_ZN23L6EdLibThreadEventQueue13postEventOnceEjiiPvb
0x000ce3de	94	_ZN23L6EdLibThreadEventQueue5startEP32IL6EdLibThreadEventQueueDelegate
0x000ce660	187	_ZN23L6EdLibThreadEventQueue8postQuitEbj
0x000ce49c	113	_ZN23L6EdLibThreadEventQueue9postEventEjiiPv
0x000ce1cc	226	_ZN23L6EdLibThreadEventQueueC1Ev
0x000ce1cc	226	_ZN23L6EdLibThreadEventQueueC2Ev
0x000ce3ae	48	_ZN23L6EdLibThreadEventQueueD0Ev
0x000ce2ae	255	_ZN23L6EdLibThreadEventQueueD1Ev
0x000ce2ae	255	_ZN23L6EdLibThreadEventQueueD2Ev
0x000fe3c0	189	_ZN23McBspMessagingSingleton11GetInstanceEt
0x000fe480	100	_ZN23McBspMessagingSingleton15ReleaseInstanceEv
0x000fe380	50	_ZN23McBspMessagingSingletonC1Ev
0x000fe380	50	_ZN23McBspMessagingSingletonC2Ev
0x000fe330	65	_ZN23McBspMessagingSingletonD1Ev
0x000fe330	65	_ZN23McBspMessagingSingletonD2Ev
0x000c35c4	5	_ZN23ToneMatchEditorDelegate17consumeParamEventEPKcS1_RK9L6Variant
0x000c35d6	15	_ZN23ToneMatchEditorDelegate17consumePatchEventEib
0x000c35f8	5	_ZN23ToneMatchEditorDelegate17consumeTunerEventEf
0x000c35d0	5	_ZN23ToneMatchEditorDelegate20consumeTapTempoEventEf
0x000c35ec	5	_ZN23ToneMatchEditorDelegate23consumePSKeyChangeEventE14presetPSKeyNumR9L6Variant
0x000c35ca	5	_ZN23ToneMatchEditorDelegate25consumeRootSlotParamEventEPKcRK9L6Variant
0x000c35e6	5	_ZN23ToneMatchEditorDelegate26consumeFirmwareStatusEventE23FirmwareStatusEventType
0x000c35f2	5	_ZN23ToneMatchEditorDelegate28consumeSysSettingChangeEventE20appSystemSettingsKeyR9L6Variant
0x000c3a50	30	_ZN23ToneMatchEditorDelegateC1Ev
0x000c3a50	30	_ZN23ToneMatchEditorDelegateC2Ev
0x000c3594	48	_ZN23ToneMatchEditorDelegateD0Ev
0x000c3554	63	_ZN23ToneMatchEditorDelegateD1Ev
0x000c3554	63	_ZN23ToneMatchEditorDelegateD2Ev
0x000c353c	11	_ZN24ToneMatchFirmwareService12getProductIdEv
0x000fae08	49	_ZN24ToneMatchFirmwareService15isServiceOnlineEv
0x000fb236	554	_ZN24ToneMatchFirmwareService17completeHandshakeEv
0x000fb460	5	_ZN24ToneMatchFirmwareService17handleTheCallbackE29FirmwareServiceCallbackReasoni
0x000c3548	11	_ZN24ToneMatchFirmwareService18getFirmwareVersionEv
0x000fb204	50	_ZN24ToneMatchFirmwareService23prepareServiceForUpdateEv
0x000fae82	734	_ZN24ToneMatchFirmwareService4openEv
0x000fb160	63	_ZN24ToneMatchFirmwareService5closeEv
0x000fb1a0	50	_ZN24ToneMatchFirmwareService5flushEv
0x000fb1d2	50	_ZN24ToneMatchFirmwareService5purgeEv
0x000fae76	12	_ZN24ToneMatchFirmwareService8goOnlineEv
0x000fae3a	59	_ZN24ToneMatchFirmwareService9goOfflineEv
0x000fac74	161	_ZN24ToneMatchFirmwareServiceC1ERK8L6StringS2_jjj
0x000fac74	161	_ZN24ToneMatchFirmwareServiceC2ERK8L6StringS2_jjj
0x000fadd8	48	_ZN24ToneMatchFirmwareServiceD0Ev
0x000fad16	194	_ZN24ToneMatchFirmwareServiceD1Ev
0x000fad16	194	_ZN24ToneMatchFirmwareServiceD2Ev
0x000f703e	37	_ZN24toneMatchEditorXferTokenC1Ev
0x000f703e	37	_ZN24toneMatchEditorXferTokenC2Ev
0x000f7248	37	_ZN24toneMatchEditorXferTokenD1Ev
0x000f7248	37	_ZN24toneMatchEditorXferTokenD2Ev
0x000b5350	400	_ZN25L6EdLibNotificationCenter11addObserverEP26L6EdLibNotificationHandlerRK8L6StringPv
0x000b4f9e	128	_ZN25L6EdLibNotificationCenter13defaultCenterEv
0x000b594c	111	_ZN25L6EdLibNotificationCenter14lockReadAccessEv
0x000b54e0	510	_ZN25L6EdLibNotificationCenter14removeObserverEP26L6EdLibNotificationHandlerRK8L6StringPv
0x000b5a1a	153	_ZN25L6EdLibNotificationCenter15lockWriteAccessEv
0x000b56de	251	_ZN25L6EdLibNotificationCenter16postNotificationERK8L6StringPvRK9L6Variantb
0x000b59bc	93	_ZN25L6EdLibNotificationCenter16unlockReadAccessEv
0x000b5ab4	93	_ZN25L6EdLibNotificationCenter17unlockWriteAccessEv
0x000b581e	301	_ZN25L6EdLibNotificationCenter21dispatchNotificationsERK8L6StringPvRK9L6Variant
0x000b57da	67	_ZN25L6EdLibNotificationCenter31dispatchMainThreadNotificationsERK8L6StringPvRK9L6Variant
0x000b5310	63	_ZN25L6EdLibNotificationCenter37setMainThreadNotificationPostDelegateEP29L6EdLibMainThreadPostDelegate
0x000b501e	262	_ZN25L6EdLibNotificationCenterC1Ev
0x000b501e	262	_ZN25L6EdLibNotificationCenterC2Ev
0x000b52e0	48	_ZN25L6EdLibNotificationCenterD0Ev
0x000b5124	444	_ZN25L6EdLibNotificationCenterD1Ev
0x000b5124	444	_ZN25L6EdLibNotificationCenterD2Ev
0x000e35f8	30	_ZN25L6SPePresetParserDelegateC1ERKS_
0x000e21a2	30	_ZN25L6SPePresetParserDelegateC1Ev
0x000e35f8	30	_ZN25L6SPePresetParserDelegateC2ERKS_
0x000e21a2	30	_ZN25L6SPePresetParserDelegateC2Ev
0x000e2172	48	_ZN25L6SPePresetParserDelegateD0Ev
0x000e2132	63	_ZN25L6SPePresetParserDelegateD1Ev
0x000e2132	63	_ZN25L6SPePresetParserDelegateD2Ev
0x000c4dbc	8	_ZN25L6SPePresetParserDelegateaSERKS_
0x000fd516	64	_ZN25ToneMatchLibrarianService15isPresetInCacheEi
0x000fd9de	148	_ZN25ToneMatchLibrarianService17completeHandshakeEv
0x000fda72	694	_ZN25ToneMatchLibrarianService17handleTheCallbackE29FirmwareServiceCallbackReasoni
0x000fd7ba	177	_ZN25ToneMatchLibrarianService18getToneMatchPresetEjR8L6Buffer
0x000fd86c	163	_ZN25ToneMatchLibrarianService18setToneMatchPresetERK8L6Bufferjb
0x000fd910	84	_ZN25ToneMatchLibrarianService19loadToneMatchPresetEj
0x000fd964	122	_ZN25ToneMatchLibrarianService22getToneMatchPresetInfoEjPyPjS1_R8L6String
0x000fd5b6	91	_ZN25ToneMatchLibrarianService22getToneMatchPresetNameER8L6Stringj
0x000fd74c	109	_ZN25ToneMatchLibrarianService22getToneMatchPresetSizeEj
0x000fd4dc	57	_ZN25ToneMatchLibrarianService22invalidateCachedPresetEi
0x000fd556	95	_ZN25ToneMatchLibrarianService23getToneMatchPresetCountEv
0x000fd6f0	91	_ZN25ToneMatchLibrarianService23moveToneMatchPresetFromEjj
0x000fd68a	102	_ZN25ToneMatchLibrarianService26getToneMatchPresetChecksumEj
0x000fd4aa	50	_ZN25ToneMatchLibrarianService27invalidateEntirePresetCacheEv
0x000fd612	119	_ZN25ToneMatchLibrarianService30getToneMatchPresetUUIDForIndexEj
0x000fd230	469	_ZN25ToneMatchLibrarianServiceC1ERK8L6StringS2_jjjP11IDevicePort
0x000fd230	469	_ZN25ToneMatchLibrarianServiceC2ERK8L6StringS2_jjjP11IDevicePort
0x000fd47a	48	_ZN25ToneMatchLibrarianServiceD0Ev
0x000fd406	116	_ZN25ToneMatchLibrarianServiceD1Ev
0x000fd406	116	_ZN25ToneMatchLibrarianServiceD2Ev
0x000fb670	175	_ZN25ToneMatchLibrarian_Remote10GetVersionEPj
0x000fc6c4	77	_ZN25ToneMatchLibrarian_Remote11SynchronizeEv
0x000fc712	325	_ZN25ToneMatchLibrarian_Remote12PurgePendingEv
0x000fb95e	175	_ZN25ToneMatchLibrarian_Remote13GetNumPresetsEPj
0x000fbe42	208	_ZN25ToneMatchLibrarian_Remote13GetPresetFileEjPcjPj
0x000fc0d4	384	_ZN25ToneMatchLibrarian_Remote13GetPresetInfoEjPyPjS1_Pcj
0x000fba0e	288	_ZN25ToneMatchLibrarian_Remote13GetPresetNameEjPcj
0x000fbb2e	210	_ZN25ToneMatchLibrarian_Remote13GetPresetUUIDEjPy
0x000fbf12	267	_ZN25ToneMatchLibrarian_Remote13SetPresetFileEjPKcjb
0x000fb7d0	180	_ZN25ToneMatchLibrarian_Remote14GetSymbolTableEPcj
0x000fc61e	166	_ZN25ToneMatchLibrarian_Remote14HandleInPacketEv
0x000fc352	715	_ZN25ToneMatchLibrarian_Remote14HandleResponseEP26toneMatchLibrarianInHeader
0x000fb4ea	390	_ZN25ToneMatchLibrarian_Remote15DoCommandCommonE23toneMatchLibrarianCmdIDPKcjj31toneMatchLibrarianInMessageTypePiPcjPP27toneMatchLibrarianXferToken
0x000fbcb4	193	_ZN25ToneMatchLibrarian_Remote15MovePresetFilesEjj
0x000fbc00	179	_ZN25ToneMatchLibrarian_Remote17GetPresetChecksumEjPj
0x000fbd76	203	_ZN25ToneMatchLibrarian_Remote17GetPresetFileSizeEjPj
0x000fb720	175	_ZN25ToneMatchLibrarian_Remote18GetSymbolTableSizeEPj
0x000fc01e	181	_ZN25ToneMatchLibrarian_Remote18LoadHardwarePresetEj
0x000fc858	311	_ZN25ToneMatchLibrarian_Remote4InitEP11IDevicePortj
0x000fb884	218	_ZN25ToneMatchLibrarian_Remote9HandshakeEPcj
0x000fc9b6	198	_ZN25ToneMatchLibrarian_Remote9TerminateEv
0x000fcaa2	217	_ZN25ToneMatchLibrarian_RemoteC1Ev
0x000fcaa2	217	_ZN25ToneMatchLibrarian_RemoteC2Ev
0x000fcc54	48	_ZN25ToneMatchLibrarian_RemoteD0Ev
0x000fcb7c	215	_ZN25ToneMatchLibrarian_RemoteD1Ev
0x000fcb7c	215	_ZN25ToneMatchLibrarian_RemoteD2Ev
0x00073bd0	30	_ZN26IEdLibNotificationDelegateC1Ev
0x00073bd0	30	_ZN26IEdLibNotificationDelegateC2Ev
0x000cf0e8	30	_ZN26L6EdLibNotificationHandlerC1Ev
0x000cf0e8	30	_ZN26L6EdLibNotificationHandlerC2Ev
0x000ce10e	48	_ZN26L6EdLibNotificationHandlerD0Ev
0x000ce0ce	63	_ZN26L6EdLibNotificationHandlerD1Ev
0x000ce0ce	63	_ZN26L6EdLibNotificationHandlerD2Ev
0x000fc990	37	_ZN27toneMatchLibrarianXferTokenC1Ev
0x000fc990	37	_ZN27toneMatchLibrarianXferTokenC2Ev
0x000fca7c	37	_ZN27toneMatchLibrarianXferTokenD1Ev
0x000fca7c	37	_ZN27toneMatchLibrarianXferTokenD2Ev
0x000c1cd0	22	_ZN28FirmwareServiceInterfaceBase10EnableFlagEj
0x000c1ce6	24	_ZN28FirmwareServiceInterfaceBase11DisableFlagEj
0x000c1cfe	19	_ZN28FirmwareServiceInterfaceBase11FlagEnabledEj
0x000c27e0	417	_ZN28FirmwareServiceInterfaceBase12ReceiveCrankEv
0x000c1998	54	_ZN28FirmwareServiceInterfaceBase13ReceiveThreadEPv
0x000c3530	11	_ZN28FirmwareServiceInterfaceBase14GetSymbolTableEv
0x000c2302	1246	_ZN28FirmwareServiceInterfaceBase15HandleHandshakeEv
0x000c1962	54	_ZN28FirmwareServiceInterfaceBase15HandshakeThreadEPv
0x000f8426	11	_ZN28FirmwareServiceInterfaceBase18GetFirmwareVersionEv
0x000c22c6	59	_ZN28FirmwareServiceInterfaceBase19WaitToAccessServiceEv
0x000c1d12	303	_ZN28FirmwareServiceInterfaceBase22handlePortNotificationEP11IDevicePortRK8L6StringRK9L6Variant
0x000c1ecc	814	_ZN28FirmwareServiceInterfaceBase4openEP11SymbolTableS1_
0x000c21fa	204	_ZN28FirmwareServiceInterfaceBase5closeEv
0x000c1e42	138	_ZN28FirmwareServiceInterfaceBase7DestroyEv
0x000f8432	11	_ZN28FirmwareServiceInterfaceBase7getPortEv
0x000c19ce	355	_ZN28FirmwareServiceInterfaceBaseC1EP11IDevicePortjPFvPv29FirmwareServiceCallbackReasoniES2_
0x000c19ce	355	_ZN28FirmwareServiceInterfaceBaseC2EP11IDevicePortjPFvPv29FirmwareServiceCallbackReasoniES2_
0x000c1ca0	48	_ZN28FirmwareServiceInterfaceBaseD0Ev
0x000c1b32	366	_ZN28FirmwareServiceInterfaceBaseD1Ev
0x000c1b32	366	_ZN28FirmwareServiceInterfaceBaseD2Ev
0x000de394	122	_ZN30FirmwareServiceInterfaceEditor11DoHandshakeEPcj
0x000de454	118	_ZN30FirmwareServiceInterfaceEditor12FetchVersionEv
0x000de40e	70	_ZN30FirmwareServiceInterfaceEditor14HandleInPacketEv
0x000de2da	186	_ZN30FirmwareServiceInterfaceEditor15ConnectToRemoteEv
0x000de4ca	319	_ZN30FirmwareServiceInterfaceEditor16FetchSymbolTableEv
0x000de102	281	_ZN30FirmwareServiceInterfaceEditor16GetSystemSettingE20appSystemSettingsKeyR9L6Variant
0x000dc85c	27	_ZN30FirmwareServiceInterfaceEditor16PrepareForUpdateEv
0x000dd220	277	_ZN30FirmwareServiceInterfaceEditor16RegisterDspEventEPKcS1_PFiP25toneMatchEditorTypedValuePvES4_
0x000de21c	189	_ZN30FirmwareServiceInterfaceEditor16SetSystemSettingE20appSystemSettingsKeyRK9L6Variant
0x000dc8c6	311	_ZN30FirmwareServiceInterfaceEditor17GetToneMatchModelEPKcR8L6String
0x000dcf5a	259	_ZN30FirmwareServiceInterfaceEditor18BindToneMatchTweakEPKcS1_
0x000dc9fe	259	_ZN30FirmwareServiceInterfaceEditor18LoadToneMatchModelEPKcS1_
0x000dd558	149	_ZN30FirmwareServiceInterfaceEditor18RegisterParamEventEPFiP25toneMatchEditorTypedValuePvES2_
0x000dd43a	149	_ZN30FirmwareServiceInterfaceEditor18RegisterPatchEventEPFiP25toneMatchEditorTypedValuePvES2_
0x000dd336	259	_ZN30FirmwareServiceInterfaceEditor18UnregisterDspEventEPKcS1_
0x000ddee2	281	_ZN30FirmwareServiceInterfaceEditor19GetPresetPSKeyParamE14presetPSKeyNumR9L6Variant
0x000dd05e	449	_ZN30FirmwareServiceInterfaceEditor19SetFootswitchAssignEjPKcib
0x000ddffc	261	_ZN30FirmwareServiceInterfaceEditor19SetPresetPSKeyParamE14presetPSKeyNumRK9L6Variant
0x000dc878	78	_ZN30FirmwareServiceInterfaceEditor20HandlePortTerminatedEv
0x000dd5ee	135	_ZN30FirmwareServiceInterfaceEditor20UnregisterParamEventEv
0x000dd4d0	135	_ZN30FirmwareServiceInterfaceEditor20UnregisterPatchEventEv
0x000ddb8c	460	_ZN30FirmwareServiceInterfaceEditor21GetPersistentSysParamE21appPresetsSysParamKeyR9L6Variant
0x000dd676	149	_ZN30FirmwareServiceInterfaceEditor21RegisterTapTempoEventEPFiP25toneMatchEditorTypedValuePvES2_
0x000ddd58	394	_ZN30FirmwareServiceInterfaceEditor21SetPersistentSysParamE21appPresetsSysParamKeyRK9L6Variant
0x000dcb02	406	_ZN30FirmwareServiceInterfaceEditor22GetToneMatchModelParamEPKcS1_R9L6Variant
0x000dd794	149	_ZN30FirmwareServiceInterfaceEditor22RegisterFbvStatusEventEPFiP25toneMatchEditorTypedValuePvES2_
0x000dcc98	380	_ZN30FirmwareServiceInterfaceEditor22SetToneMatchModelParamEPKcS1_RK9L6Variantb
0x000dce14	183	_ZN30FirmwareServiceInterfaceEditor23SetToneMatchGlobalTempoERK9L6Variant
0x000dd70c	135	_ZN30FirmwareServiceInterfaceEditor23UnregisterTapTempoEventEv
0x000dd8b2	149	_ZN30FirmwareServiceInterfaceEditor24RegisterPSKeyChangeEventEPFiP25toneMatchEditorTypedValuePvES2_
0x000dd82a	135	_ZN30FirmwareServiceInterfaceEditor24UnregisterFbvStatusEventEv
0x000dd948	135	_ZN30FirmwareServiceInterfaceEditor26UnregisterPSKeyChangeEventEv
0x000dd9d0	149	_ZN30FirmwareServiceInterfaceEditor29RegisterSysSettingChangeEventEPFiP25toneMatchEditorTypedValuePvES2_
0x000dda66	135	_ZN30FirmwareServiceInterfaceEditor31UnregisterSysSettingChangeEventEv
0x000dcecc	142	_ZN30FirmwareServiceInterfaceEditor32GetToneMatchEditBufferDirtyStateEPj
0x000ddaee	157	_ZN30FirmwareServiceInterfaceEditor33GetToneMatchFbvConnectivityStatusEPj
0x000dc7de	125	_ZN30FirmwareServiceInterfaceEditor5FlushEv
0x000dc788	86	_ZN30FirmwareServiceInterfaceEditor5PurgeEv
0x000dc6f2	150	_ZN30FirmwareServiceInterfaceEditor7DestroyEv
0x000dc59c	140	_ZN30FirmwareServiceInterfaceEditorC1EP11IDevicePortjPFvPv29FirmwareServiceCallbackReasoniES2_
0x000dc59c	140	_ZN30FirmwareServiceInterfaceEditorC2EP11IDevicePortjPFvPv29FirmwareServiceCallbackReasoniES2_
0x000dc6c2	48	_ZN30FirmwareServiceInterfaceEditorD0Ev
0x000dc628	154	_ZN30FirmwareServiceInterfaceEditorD1Ev
0x000dc628	154	_ZN30FirmwareServiceInterfaceEditorD2Ev
0x00073bee	30	_ZN32IL6DeviceLibNotificationDelegateC1Ev
0x00073bee	30	_ZN32IL6DeviceLibNotificationDelegateC2Ev
0x000cf106	30	_ZN32IL6EdLibThreadEventQueueDelegateC1Ev
0x000cf106	30	_ZN32IL6EdLibThreadEventQueueDelegateC2Ev
0x000ce17e	48	_ZN32IL6EdLibThreadEventQueueDelegateD0Ev
0x000ce13e	63	_ZN32IL6EdLibThreadEventQueueDelegateD1Ev
0x000ce13e	63	_ZN32IL6EdLibThreadEventQueueDelegateD2Ev
0x000dfdb0	305	_ZN33FirmwareServiceInterfaceLibrarian11DoHandshakeEPcj
0x000dff28	118	_ZN33FirmwareServiceInterfaceLibrarian12FetchVersionEv
0x000dfee2	70	_ZN33FirmwareServiceInterfaceLibrarian14HandleInPacketEv
0x000dfce2	206	_ZN33FirmwareServiceInterfaceLibrarian15ConnectToRemoteEv
0x000dfc68	122	_ZN33FirmwareServiceInterfaceLibrarian16CacheEntryInSyncEj
0x000e0548	19	_ZN33FirmwareServiceInterfaceLibrarian16ConvertToUpdaterEv
0x000e0e2c	176	_ZN33FirmwareServiceInterfaceLibrarian16DebugPresetCacheEjj
0x000e0194	153	_ZN33FirmwareServiceInterfaceLibrarian16FetchPresetCountEv
0x000e0422	293	_ZN33FirmwareServiceInterfaceLibrarian16FetchPresetNamesEv
0x000e0328	250	_ZN33FirmwareServiceInterfaceLibrarian16FetchPresetSizesEv
0x000dff9e	10	_ZN33FirmwareServiceInterfaceLibrarian16FetchSymbolTableEv
0x000e0990	704	_ZN33FirmwareServiceInterfaceLibrarian16HandleDirtyEntryEP16PresetCacheEntry
0x000dffa8	491	_ZN33FirmwareServiceInterfaceLibrarian16LibrarianManagerEv
0x000dedbc	37	_ZN33FirmwareServiceInterfaceLibrarian16PrepareForUpdateEv
0x000df660	666	_ZN33FirmwareServiceInterfaceLibrarian18GetToneMatchPresetEjPPvPj
0x000df8fa	393	_ZN33FirmwareServiceInterfaceLibrarian18SetToneMatchPresetEjPKcjb
0x000e0edc	243	_ZN33FirmwareServiceInterfaceLibrarian19LogPresetCacheEntryEP16PresetCacheEntry
0x000df25a	246	_ZN33FirmwareServiceInterfaceLibrarian19MoveToneMatchPresetEjj
0x000e022e	250	_ZN33FirmwareServiceInterfaceLibrarian20FetchPresetChecksumsEv
0x000dede2	78	_ZN33FirmwareServiceInterfaceLibrarian20HandlePortTerminatedEv
0x000dfbe0	136	_ZN33FirmwareServiceInterfaceLibrarian20InvalidateCacheEntryEj
0x000e08e2	173	_ZN33FirmwareServiceInterfaceLibrarian21HandleSuspiciousEntryEP16PresetCacheEntry
0x000e055c	670	_ZN33FirmwareServiceInterfaceLibrarian21InitializePresetCacheEv
0x000dfb36	169	_ZN33FirmwareServiceInterfaceLibrarian21InvalidateEntireCacheEv
0x000de70a	10	_ZN33FirmwareServiceInterfaceLibrarian22GetToneMatchPresetInfoEjPyPjS1_R8L6String
0x000dee88	546	_ZN33FirmwareServiceInterfaceLibrarian22GetToneMatchPresetNameEjR8L6String
0x000df4a4	444	_ZN33FirmwareServiceInterfaceLibrarian22GetToneMatchPresetSizeEjPj
0x000df350	340	_ZN33FirmwareServiceInterfaceLibrarian22GetToneMatchPresetUUIDEjPy
0x000de786	54	_ZN33FirmwareServiceInterfaceLibrarian22LibrarianManagerThreadEPv
0x000dee30	87	_ZN33FirmwareServiceInterfaceLibrarian23GetToneMatchPresetCountEPj
0x000e0822	147	_ZN33FirmwareServiceInterfaceLibrarian25MarkPresetCacheEntryDirtyEP16PresetCacheEntry
0x000df0aa	432	_ZN33FirmwareServiceInterfaceLibrarian26GetToneMatchPresetChecksumEjPj
0x000e08cc	21	_ZN33FirmwareServiceInterfaceLibrarian26MarkPresetCacheEntryInSyncEP16PresetCacheEntry
0x000dfa84	178	_ZN33FirmwareServiceInterfaceLibrarian27LoadToneMatchHardwarePresetEj
0x000e08b6	21	_ZN33FirmwareServiceInterfaceLibrarian30MarkPresetCacheEntrySuspiciousEP16PresetCacheEntry
0x000dece8	125	_ZN33FirmwareServiceInterfaceLibrarian5FlushEv
0x000ded66	86	_ZN33FirmwareServiceInterfaceLibrarian5PurgeEv
0x000debca	286	_ZN33FirmwareServiceInterfaceLibrarian7DestroyEv
0x000e0c50	475	_ZN33FirmwareServiceInterfaceLibrarian9MoveEntryEjj
0x000de7bc	353	_ZN33FirmwareServiceInterfaceLibrarianC1EP11IDevicePortjPFvPv29FirmwareServiceCallbackReasoniES2_
0x000de7bc	353	_ZN33FirmwareServiceInterfaceLibrarianC2EP11IDevicePortjPFvPv29FirmwareServiceCallbackReasoniES2_
0x000deb9a	48	_ZN33FirmwareServiceInterfaceLibrarianD0Ev
0x000de946	595	_ZN33FirmwareServiceInterfaceLibrarianD1Ev
0x000de946	595	_ZN33FirmwareServiceInterfaceLibrarianD2Ev
0x000e135e	434	_ZN35FirmwareServiceInterfaceLibrarianV216HandleDirtyEntryEP16PresetCacheEntry
0x000e10ca	660	_ZN35FirmwareServiceInterfaceLibrarianV222GetToneMatchPresetInfoEjPyPjS1_R8L6String
0x000e0fd0	128	_ZN35FirmwareServiceInterfaceLibrarianV2C1EP11IDevicePortjPFvPv29FirmwareServiceCallbackReasoniES2_
0x000e0fd0	128	_ZN35FirmwareServiceInterfaceLibrarianV2C2EP11IDevicePortjPFvPv29FirmwareServiceCallbackReasoniES2_
0x000e109a	48	_ZN35FirmwareServiceInterfaceLibrarianV2D0Ev
0x000e1050	74	_ZN35FirmwareServiceInterfaceLibrarianV2D1Ev
0x000e1050	74	_ZN35FirmwareServiceInterfaceLibrarianV2D2Ev
0x001073ec	1150	_ZN4Json10FastWriter10writeValueERKNS_5ValueE
0x0010736a	12	_ZN4Json10FastWriter23enableYAMLCompatibilityEv
0x00107376	118	_ZN4Json10FastWriter5writeERKNS_5ValueE
0x00107308	97	_ZN4Json10FastWriterC1Ev
0x00107308	97	_ZN4Json10FastWriterC2Ev
0x0010657e	48	_ZN4Json10FastWriterD0Ev
0x0010650a	116	_ZN4Json10FastWriterD1Ev
0x0010650a	116	_ZN4Json10FastWriterD2Ev
0x001163cc	108	_ZN4Json12PathArgumentC1EPKc
0x001185c2	68	_ZN4Json12PathArgumentC1ERKS0_
0x00116438	118	_ZN4Json12PathArgumentC1ERKSs
0x00116394	56	_ZN4Json12PathArgumentC1Ej
0x00116364	47	_ZN4Json12PathArgumentC1Ev
0x001163cc	108	_ZN4Json12PathArgumentC2EPKc
0x001185c2	68	_ZN4Json12PathArgumentC2ERKS0_
0x00116438	118	_ZN4Json12PathArgumentC2ERKSs
0x00116394	56	_ZN4Json12PathArgumentC2Ej
0x00116364	47	_ZN4Json12PathArgumentC2Ev
0x0011289e	37	_ZN4Json12PathArgumentD1Ev
0x0011289e	37	_ZN4Json12PathArgumentD2Ev
0x00118962	71	_ZN4Json12PathArgumentaSERKS0_
0x0011287c	13	_ZN4Json12StaticStringC1EPKc
0x0011287c	13	_ZN4Json12StaticStringC2EPKc
0x001079dc	1413	_ZN4Json12StyledWriter10writeValueERKNS_5ValueE
0x00108514	149	_ZN4Json12StyledWriter11writeIndentEv
0x00108a16	219	_ZN4Json12StyledWriter12normalizeEOLERKSs
0x0008625a	14	_ZN4Json12StyledWriter14SetIndentWidthEi
0x001082de	484	_ZN4Json12StyledWriter14isMultineArrayERKNS_5ValueE
0x00107f62	892	_ZN4Json12StyledWriter15writeArrayValueERKNS_5ValueE
0x001085aa	58	_ZN4Json12StyledWriter15writeWithIndentERKSs
0x00086268	14	_ZN4Json12StyledWriter18SetDoublePrecisionEi
0x001089aa	107	_ZN4Json12StyledWriter18hasCommentForValueERKNS_5ValueE
0x00108708	217	_ZN4Json12StyledWriter23writeCommentBeforeValueERKNS_5ValueE
0x001087e2	456	_ZN4Json12StyledWriter32writeCommentAfterValueOnSameLineERKNS_5ValueE
0x00107922	185	_ZN4Json12StyledWriter5writeERKNS_5ValueE
0x001085e4	156	_ZN4Json12StyledWriter6indentEv
0x00108680	136	_ZN4Json12StyledWriter8unindentEv
0x001084c2	81	_ZN4Json12StyledWriter9pushValueERKSs
0x0010786a	184	_ZN4Json12StyledWriterC1Ev
0x0010786a	184	_ZN4Json12StyledWriterC2Ev
0x0008622a	48	_ZN4Json12StyledWriterD0Ev
0x00086176	180	_ZN4Json12StyledWriterD1Ev
0x00086176	180	_ZN4Json12StyledWriterD2Ev
0x00112f62	51	_ZN4Json13ValueIteratorC1ERKNS_18ValueConstIteratorE
0x00112f96	51	_ZN4Json13ValueIteratorC1ERKS0_
0x00112f36	44	_ZN4Json13ValueIteratorC1ERKSt17_Rb_tree_iteratorISt4pairIKNS_5Value8CZStringES3_EE
0x00112f10	37	_ZN4Json13ValueIteratorC1Ev
0x00112f62	51	_ZN4Json13ValueIteratorC2ERKNS_18ValueConstIteratorE
0x00112f96	51	_ZN4Json13ValueIteratorC2ERKS0_
0x00112f36	44	_ZN4Json13ValueIteratorC2ERKSt17_Rb_tree_iteratorISt4pairIKNS_5Value8CZStringES3_EE
0x00112f10	37	_ZN4Json13ValueIteratorC2Ev
0x00112fca	47	_ZN4Json13ValueIteratoraSERKS0_
0x00106d53	126	_ZN4Json13valueToStringEb
0x001068ef	1124	_ZN4Json13valueToStringEdi
0x0010670e	260	_ZN4Json13valueToStringEi
0x00106812	221	_ZN4Json13valueToStringEj
0x00112a8e	30	_ZN4Json14ValueAllocatorC1Ev
0x00112a8e	30	_ZN4Json14ValueAllocatorC2Ev
0x00112904	48	_ZN4Json14ValueAllocatorD0Ev
0x001128c4	63	_ZN4Json14ValueAllocatorD1Ev
0x001128c4	63	_ZN4Json14ValueAllocatorD2Ev
0x00112cd6	15	_ZN4Json17ValueIteratorBase4copyERKS0_
0x00112c00	37	_ZN4Json17ValueIteratorBase9decrementEv
0x00112bda	37	_ZN4Json17ValueIteratorBase9incrementEv
0x00112b9c	22	_ZN4Json17ValueIteratorBaseC1ERKSt17_Rb_tree_iteratorISt4pairIKNS_5Value8CZStringES3_EE
0x00112b70	44	_ZN4Json17ValueIteratorBaseC1Ev
0x00112b9c	22	_ZN4Json17ValueIteratorBaseC2ERKSt17_Rb_tree_iteratorISt4pairIKNS_5Value8CZStringES3_EE
0x00112b70	44	_ZN4Json17ValueIteratorBaseC2Ev
0x00108c16	1411	_ZN4Json18StyledStreamWriter10writeValueERKNS_5ValueE
0x00109736	68	_ZN4Json18StyledStreamWriter11writeIndentEv
0x00109b90	219	_ZN4Json18StyledStreamWriter12normalizeEOLERKSs
0x0010950c	475	_ZN4Json18StyledStreamWriter14isMultineArrayERKNS_5ValueE
0x0010919a	882	_ZN4Json18StyledStreamWriter15writeArrayValueERKNS_5ValueE
0x0010977a	58	_ZN4Json18StyledStreamWriter15writeWithIndentERKSs
0x00109b24	107	_ZN4Json18StyledStreamWriter18hasCommentForValueERKNS_5ValueE
0x00109882	217	_ZN4Json18StyledStreamWriter23writeCommentBeforeValueERKNS_5ValueE
0x0010995c	456	_ZN4Json18StyledStreamWriter32writeCommentAfterValueOnSameLineERKNS_5ValueE
0x00108b7c	154	_ZN4Json18StyledStreamWriter5writeERSoRKNS_5ValueE
0x001097b4	50	_ZN4Json18StyledStreamWriter6indentEv
0x001097e6	156	_ZN4Json18StyledStreamWriter8unindentEv
0x001096e8	78	_ZN4Json18StyledStreamWriter9pushValueERKSs
0x00108af2	137	_ZN4Json18StyledStreamWriterC1ESs
0x00108af2	137	_ZN4Json18StyledStreamWriterC2ESs
0x001065ae	108	_ZN4Json18StyledStreamWriterD1Ev
0x001065ae	108	_ZN4Json18StyledStreamWriterD2Ev
0x00112eb4	44	_ZN4Json18ValueConstIteratorC1ERKSt17_Rb_tree_iteratorISt4pairIKNS_5Value8CZStringES3_EE
0x00112e8e	37	_ZN4Json18ValueConstIteratorC1Ev
0x00112eb4	44	_ZN4Json18ValueConstIteratorC2ERKSt17_Rb_tree_iteratorISt4pairIKNS_5Value8CZStringES3_EE
0x00112e8e	37	_ZN4Json18ValueConstIteratorC2Ev
0x00112ee0	47	_ZN4Json18ValueConstIteratoraSERKNS_17ValueIteratorBaseE
0x00106dd1	1192	_ZN4Json19valueToQuotedStringEPKc
0x001129ae	42	_ZN4Json21DefaultValueAllocator14makeMemberNameEPKc
0x001129d8	34	_ZN4Json21DefaultValueAllocator17releaseMemberNameEPc
0x00112a62	43	_ZN4Json21DefaultValueAllocator18releaseStringValueEPc
0x001129fa	103	_ZN4Json21DefaultValueAllocator20duplicateStringValueEPKcj
0x00112aac	51	_ZN4Json21DefaultValueAllocatorC1Ev
0x00112aac	51	_ZN4Json21DefaultValueAllocatorC2Ev
0x0011297e	48	_ZN4Json21DefaultValueAllocatorD0Ev
0x00112934	74	_ZN4Json21DefaultValueAllocatorD1Ev
0x00112934	74	_ZN4Json21DefaultValueAllocatorD2Ev
0x00112b62	14	_ZN4Json30DummyValueAllocatorInitializerC1Ev
0x00112b62	14	_ZN4Json30DummyValueAllocatorInitializerC2Ev
0x00116904	5	_ZN4Json4Path11invalidPathERKSsi
0x00116886	126	_ZN4Json4Path12addPathInArgERKSsRKSt6vectorIPKNS_12PathArgumentESaIS6_EERN9__gnu_cxx17__normal_iteratorIPKS6_S8_EENS4_4KindE
0x001165a4	738	_ZN4Json4Path8makePathERKSsRKSt6vectorIPKNS_12PathArgumentESaIS6_EE
0x001164ae	246	_ZN4Json4PathC1ERKSsRKNS_12PathArgumentES5_S5_S5_S5_
0x001164ae	246	_ZN4Json4PathC2ERKSsRKNS_12PathArgumentES5_S5_S5_S5_
0x00115f14	209	_ZN4Json5Value10setCommentEPKcNS_16CommentPlacementE
0x00115fe6	59	_ZN4Json5Value10setCommentERKSsNS_16CommentPlacementE
0x00113036	344	_ZN4Json5Value11CommentInfo10setCommentEPKc
0x00112ffa	14	_ZN4Json5Value11CommentInfoC1Ev
0x00112ffa	14	_ZN4Json5Value11CommentInfoC2Ev
0x00113008	46	_ZN4Json5Value11CommentInfoD1Ev
0x00113008	46	_ZN4Json5Value11CommentInfoD2Ev
0x001159e0	388	_ZN4Json5Value12removeMemberEPKc
0x00115b64	67	_ZN4Json5Value12removeMemberERKSs
0x0011549c	512	_ZN4Json5Value16resolveReferenceEPKcb
0x001162f0	115	_ZN4Json5Value3endEv
0x00113ace	166	_ZN4Json5Value4swapERS0_
0x0011627c	115	_ZN4Json5Value5beginEv
0x00114ef2	135	_ZN4Json5Value5clearEv
0x001158fc	67	_ZN4Json5Value6appendERKS0_
0x00114f7a	402	_ZN4Json5Value6resizeEj
0x00113b84	10	_ZN4Json5Value7compareERKS0_
0x0011328e	68	_ZN4Json5Value8CZString4swapERS1_
0x001131a6	60	_ZN4Json5Value8CZStringC1EPKcNS1_17DuplicationPolicyE
0x001131e2	113	_ZN4Json5Value8CZStringC1ERKS1_
0x0011318e	23	_ZN4Json5Value8CZStringC1Ei
0x001131a6	60	_ZN4Json5Value8CZStringC2EPKcNS1_17DuplicationPolicyE
0x001131e2	113	_ZN4Json5Value8CZStringC2ERKS1_
0x0011318e	23	_ZN4Json5Value8CZStringC2Ei
0x00113254	57	_ZN4Json5Value8CZStringD1Ev
0x00113254	57	_ZN4Json5Value8CZStringD2Ev
0x001132d2	103	_ZN4Json5Value8CZStringaSERKS1_
0x00113402	224	_ZN4Json5ValueC1ENS_9ValueTypeE
0x00113550	80	_ZN4Json5ValueC1EPKc
0x001135a0	96	_ZN4Json5ValueC1EPKcS2_
0x0011367a	74	_ZN4Json5ValueC1ERKNS_12StaticStringE
0x001136ee	555	_ZN4Json5ValueC1ERKS0_
0x00113600	122	_ZN4Json5ValueC1ERKSs
0x001136c4	41	_ZN4Json5ValueC1Eb
0x0011351e	50	_ZN4Json5ValueC1Ed
0x001134e2	30	_ZN4Json5ValueC1Ei
0x00113500	30	_ZN4Json5ValueC1Ej
0x00113402	224	_ZN4Json5ValueC2ENS_9ValueTypeE
0x00113550	80	_ZN4Json5ValueC2EPKc
0x001135a0	96	_ZN4Json5ValueC2EPKcS2_
0x0011367a	74	_ZN4Json5ValueC2ERKNS_12StaticStringE
0x001136ee	555	_ZN4Json5ValueC2ERKS0_
0x00113600	122	_ZN4Json5ValueC2ERKSs
0x001136c4	41	_ZN4Json5ValueC2Eb
0x0011351e	50	_ZN4Json5ValueC2Ed
0x001134e2	30	_ZN4Json5ValueC2Ei
0x00113500	30	_ZN4Json5ValueC2Ej
0x00113940	293	_ZN4Json5ValueD1Ev
0x00113940	293	_ZN4Json5ValueD2Ev
0x00113a66	103	_ZN4Json5ValueaSERKS0_
0x00115468	52	_ZN4Json5ValueixEPKc
0x001158c0	60	_ZN4Json5ValueixERKNS_12StaticStringE
0x00115858	52	_ZN4Json5ValueixERKSs
0x00115158	478	_ZN4Json5ValueixEj
0x0010bc1e	450	_ZN4Json6Reader10addCommentEPKcS2_NS_16CommentPlacementE
0x0010be9a	163	_ZN4Json6Reader10readNumberEv
0x0010bfa4	1087	_ZN4Json6Reader10readObjectERNS0_5TokenE
0x0010bf3e	102	_ZN4Json6Reader10readStringEv
0x0010ba2a	86	_ZN4Json6Reader10skipSpacesEv
0x0010b7b2	196	_ZN4Json6Reader11expectTokenENS0_9TokenTypeERNS0_5TokenEPKc
0x0010d77e	48	_ZN4Json6Reader11getNextCharEv
0x0010bafa	292	_ZN4Json6Reader11readCommentEv
0x0010d756	39	_ZN4Json6Reader12currentValueEv
0x0010c9c4	711	_ZN4Json6Reader12decodeDoubleERNS0_5TokenE
0x0010c61a	937	_ZN4Json6Reader12decodeNumberERNS0_5TokenE
0x0010cc8c	189	_ZN4Json6Reader12decodeStringERNS0_5TokenE
0x0010cd4a	826	_ZN4Json6Reader12decodeStringERNS0_5TokenERSs
0x0010d5d2	310	_ZN4Json6Reader16recoverFromErrorENS0_9TokenTypeE
0x0010bde0	101	_ZN4Json6Reader17readCStyleCommentEv
0x0010b758	90	_ZN4Json6Reader17skipCommentTokensERNS0_5TokenE
0x0010d708	77	_ZN4Json6Reader18addErrorAndRecoverERKSsRNS0_5TokenENS0_9TokenTypeE
0x0010be46	83	_ZN4Json6Reader19readCppStyleCommentEv
0x0010d084	575	_ZN4Json6Reader22decodeUnicodeCodePointERNS0_5TokenERPKcS4_Rj
0x0010d2c4	510	_ZN4Json6Reader27decodeUnicodeEscapeSequenceERNS0_5TokenERPKcS4_Rj
0x0010ba80	121	_ZN4Json6Reader5matchEPKci
0x0010b266	543	_ZN4Json6Reader5parseEPKcS2_RNS_5ValueEb
0x0010b156	130	_ZN4Json6Reader5parseERKSsRNS_5ValueEb
0x0010b1d8	142	_ZN4Json6Reader5parseERSiRNS_5ValueEb
0x0010d4ea	148	_ZN4Json6Reader8addErrorERKSsRNS0_5TokenEPKc
0x0010d57e	84	_ZN4Json6Reader9ErrorInfoC1ERKS1_
0x0010d4c2	40	_ZN4Json6Reader9ErrorInfoC1Ev
0x0010d57e	84	_ZN4Json6Reader9ErrorInfoC2ERKS1_
0x0010d4c2	40	_ZN4Json6Reader9ErrorInfoC2Ev
0x00087db0	40	_ZN4Json6Reader9ErrorInfoD1Ev
0x00087db0	40	_ZN4Json6Reader9ErrorInfoD2Ev
0x00111e5c	87	_ZN4Json6Reader9ErrorInfoaSERKS1_
0x0010c3e4	566	_ZN4Json6Reader9readArrayERNS0_5TokenE
0x0010b876	435	_ZN4Json6Reader9readTokenERNS0_5TokenE
0x0010b486	722	_ZN4Json6Reader9readValueEv
0x0010b088	205	_ZN4Json6ReaderC1ERKNS_8FeaturesE
0x0010afa6	226	_ZN4Json6ReaderC1Ev
0x0010b088	205	_ZN4Json6ReaderC2ERKNS_8FeaturesE
0x0010afa6	226	_ZN4Json6ReaderC2Ev
0x000863d2	140	_ZN4Json6ReaderD1Ev
0x000863d2	140	_ZN4Json6ReaderD2Ev
0x001072ea	30	_ZN4Json6WriterC1Ev
0x001072ea	30	_ZN4Json6WriterC2Ev
0x001072ba	48	_ZN4Json6WriterD0Ev
0x0010727a	63	_ZN4Json6WriterD1Ev
0x0010727a	63	_ZN4Json6WriterD2Ev
0x0010ac50	56	_ZN4Json8Features10strictModeEv
0x0010ac26	42	_ZN4Json8Features3allEv
0x0010ac14	18	_ZN4Json8FeaturesC1Ev
0x0010ac14	18	_ZN4Json8FeaturesC2Ev
0x00109c6b	224	_ZN4JsonlsERSoRKNS_5ValueE
0x0010dc05	281	_ZN4JsonrsERSiRNS_5ValueE
0x000973ac	55	_ZN5L6UUE11UUEResultExC1ERKNS_9UUEResult4CodeEPKc
0x000a880e	54	_ZN5L6UUE11UUEResultExC1ERKNS_9UUEResultE
0x000982de	56	_ZN5L6UUE11UUEResultExC1ERKS0_
0x000973ac	55	_ZN5L6UUE11UUEResultExC2ERKNS_9UUEResult4CodeEPKc
0x000a880e	54	_ZN5L6UUE11UUEResultExC2ERKNS_9UUEResultE
0x000982de	56	_ZN5L6UUE11UUEResultExC2ERKS0_
0x000a8844	25	_ZN5L6UUE11UUEResultExaSERKNS_9UUEResultE
0x000aaa66	40	_ZN5L6UUE11UpdateChunkC1Ev
0x000aaa66	40	_ZN5L6UUE11UpdateChunkC2Ev
0x000aaa8e	40	_ZN5L6UUE11UpdateChunkD1Ev
0x000aaa8e	40	_ZN5L6UUE11UpdateChunkD2Ev
0x0009931c	89	_ZN5L6UUE12ImageArchive4Node9SerializeER16StreamSerializer
0x0009a038	80	_ZN5L6UUE12ImageArchive4NodeC1Ev
0x0009a038	80	_ZN5L6UUE12ImageArchive4NodeC2Ev
0x0009939c	111	_ZN5L6UUE12ImageArchive4NodeD1Ev
0x0009939c	111	_ZN5L6UUE12ImageArchive4NodeD2Ev
0x0009916e	429	_ZN5L6UUE12ImageArchive5Image9SerializeER16StreamSerializer
0x00099b6c	124	_ZN5L6UUE12ImageArchive5ImageC1Ev
0x00099b6c	124	_ZN5L6UUE12ImageArchive5ImageC2Ev
0x00099c58	111	_ZN5L6UUE12ImageArchive5ImageD1Ev
0x00099c58	111	_ZN5L6UUE12ImageArchive5ImageD2Ev
0x000995c8	283	_ZN5L6UUE12ImageArchive9SerializeER16StreamSerializer
0x000994be	80	_ZN5L6UUE12ImageArchiveC1Ev
0x000994be	80	_ZN5L6UUE12ImageArchiveC2Ev
0x00099598	48	_ZN5L6UUE12ImageArchiveD0Ev
0x0009950e	137	_ZN5L6UUE12ImageArchiveD1Ev
0x0009950e	137	_ZN5L6UUE12ImageArchiveD2Ev
0x0009e338	124	_ZN5L6UUE12UpdateDevice11AbortUpdateERNS_12DeviceResultE
0x0009e1d0	124	_ZN5L6UUE12UpdateDevice11BeginUpdateERNS_12DeviceResultE
0x0009e430	235	_ZN5L6UUE12UpdateDevice14ExitUpdateModeENS_8OptionalIjEERNS_12DeviceResultERS2_
0x0009dffc	123	_ZN5L6UUE12UpdateDevice14QueryImageInfoERjRNS_9ImageInfoE
0x0009def6	138	_ZN5L6UUE12UpdateDevice15EnterUpdateModeERNS_12DeviceResultE
0x0009df80	124	_ZN5L6UUE12UpdateDevice15QueryDeviceInfoERNS_7DevInfoE
0x0009e078	344	_ZN5L6UUE12UpdateDevice15UpdateHandshakeERNS_16UpdateParametersERNS_17UpdateConstraintsE
0x0009dc2e	140	_ZN5L6UUE12UpdateDevice16GetTimeoutForCmdENS_13UpdateCommandE
0x0009e24c	235	_ZN5L6UUE12UpdateDevice16WriteUpdateChunkERNS_11UpdateChunkERNS_12DeviceResultERj
0x0009deee	8	_ZN5L6UUE12UpdateDevice18GetUpdateInterfaceEj
0x0009ddd8	268	_ZN5L6UUE12UpdateDevice23QueryUpdateProtocolInfoERNS_12ProtocolInfoE
0x0009dcba	275	_ZN5L6UUE12UpdateDevice25InspectTimeoutConstraintsERNS_17UpdateConstraintsE
0x0009e51c	123	_ZN5L6UUE12UpdateDevice4SeekEjRNS_12DeviceResultE
0x0009e3b4	124	_ZN5L6UUE12UpdateDevice9EndUpdateERNS_12DeviceResultE
0x0009e598	318	_ZN5L6UUE12UpdateDevice9ReadChunkEjjRNS_11UpdateChunkE
0x0009db1c	133	_ZN5L6UUE12UpdateDeviceC1EP8IOStream
0x0009db1c	133	_ZN5L6UUE12UpdateDeviceC2EP8IOStream
0x0009dbfe	48	_ZN5L6UUE12UpdateDeviceD0Ev
0x0009dba2	92	_ZN5L6UUE12UpdateDeviceD1Ev
0x0009dba2	92	_ZN5L6UUE12UpdateDeviceD2Ev
0x000a90c0	160	_ZN5L6UUE12UpdateEngine10EndSessionEv
0x000a8f2c	157	_ZN5L6UUE12UpdateEngine11InitSessionEPNS_18IDevQueryInterfaceERNS0_13UpdateOptionsE
0x000a9042	126	_ZN5L6UUE12UpdateEngine11UpdateImageERNS0_9ImageInfoEP8InStreamRNS0_13UpdateOptionsEP9IProgress
0x000a8fca	119	_ZN5L6UUE12UpdateEngine17BuildUpdateScriptERSt4listINS0_9ImageInfoESaIS2_EES5_RNS0_13UpdateOptionsE
0x000aaaf6	88	_ZN5L6UUE12UpdateEngine7Session10DoChecksumEPjPKvjj
0x000a9a8e	238	_ZN5L6UUE12UpdateEngine7Session10EndSessionEv
0x000a9422	704	_ZN5L6UUE12UpdateEngine7Session11InitSessionEPNS_18IDevQueryInterfaceERNS0_13UpdateOptionsE
0x000aaab6	64	_ZN5L6UUE12UpdateEngine7Session16CheckConstraintsERNS_17UpdateConstraintsE
0x000a97b6	727	_ZN5L6UUE12UpdateEngine7Session17BuildUpdateScriptERSt4listINS0_9ImageInfoESaIS3_EES6_RNS0_13UpdateOptionsE
0x000aab4e	204	_ZN5L6UUE12UpdateEngine7Session17RefreshDeviceInfoEv
0x000aae9c	69	_ZN5L6UUE12UpdateEngine7Session19GetDeviceCapabilityENS_8DevCapIDE
0x000aac1a	308	_ZN5L6UUE12UpdateEngine7Session22RefreshDeviceImageInfoEv
0x000aadfc	160	_ZN5L6UUE12UpdateEngine7Session24GetCachedDeviceImageInfoEjRNS_9ImageInfoE
0x000a9e2e	3127	_ZN5L6UUE12UpdateEngine7Session8DoUpdateERNS0_9ImageInfoEP8InStreamRNS0_13UpdateOptionsEP9IProgress
0x000a9310	103	_ZN5L6UUE12UpdateEngine7SessionC1Ev
0x000a9310	103	_ZN5L6UUE12UpdateEngine7SessionC2Ev
0x000a93f2	48	_ZN5L6UUE12UpdateEngine7SessionD0Ev
0x000a9378	122	_ZN5L6UUE12UpdateEngine7SessionD1Ev
0x000a9378	122	_ZN5L6UUE12UpdateEngine7SessionD2Ev
0x0009d1f6	162	_ZN5L6UUE12UpdateEngine9ImageInfoC1ERKS1_
0x00099aba	62	_ZN5L6UUE12UpdateEngine9ImageInfoC1Ev
0x0009d1f6	162	_ZN5L6UUE12UpdateEngine9ImageInfoC2ERKS1_
0x00099aba	62	_ZN5L6UUE12UpdateEngine9ImageInfoC2Ev
0x00099af8	40	_ZN5L6UUE12UpdateEngine9ImageInfoD1Ev
0x00099af8	40	_ZN5L6UUE12UpdateEngine9ImageInfoD2Ev
0x000a8e70	40	_ZN5L6UUE12UpdateEngineC1Ev
0x000a8e70	40	_ZN5L6UUE12UpdateEngineC2Ev
0x000a8efc	48	_ZN5L6UUE12UpdateEngineD0Ev
0x000a8e98	99	_ZN5L6UUE12UpdateEngineD1Ev
0x000a8e98	99	_ZN5L6UUE12UpdateEngineD2Ev
0x00097558	162	_ZN5L6UUE14MemoryInStream4ReadEPvjj
0x00097508	79	_ZN5L6UUE14MemoryInStreamC1EPKvj
0x00097508	79	_ZN5L6UUE14MemoryInStreamC2EPKvj
0x000a8b5c	95	_ZN5L6UUE15DeviceExceptionC1ERNS_12DeviceResultEPKc
0x000a8b5c	95	_ZN5L6UUE15DeviceExceptionC2ERNS_12DeviceResultEPKc
0x000a8cc8	48	_ZN5L6UUE15DeviceExceptionD0Ev
0x000a8c7e	74	_ZN5L6UUE15DeviceExceptionD1Ev
0x000a8c7e	74	_ZN5L6UUE15DeviceExceptionD2Ev
0x000a885e	79	_ZN5L6UUE15UpdateExceptionC1ENS_9UUEResultEPKc
0x000a88ae	80	_ZN5L6UUE15UpdateExceptionC1EPKc
0x000a885e	79	_ZN5L6UUE15UpdateExceptionC2ENS_9UUEResultEPKc
0x000a88ae	80	_ZN5L6UUE15UpdateExceptionC2EPKc
0x000a8948	48	_ZN5L6UUE15UpdateExceptionD0Ev
0x000a88fe	74	_ZN5L6UUE15UpdateExceptionD1Ev
0x000a88fe	74	_ZN5L6UUE15UpdateExceptionD2Ev
0x000a9bee	84	_ZN5L6UUE16UpdateParametersC1Ev
0x000a9bee	84	_ZN5L6UUE16UpdateParametersC2Ev
0x000a9c42	82	_ZN5L6UUE16UpdateParametersD1Ev
0x000a9c42	82	_ZN5L6UUE16UpdateParametersD2Ev
0x000a9d06	40	_ZN5L6UUE17UpdateConstraintsC1Ev
0x000a9d06	40	_ZN5L6UUE17UpdateConstraintsC2Ev
0x000a9d2e	40	_ZN5L6UUE17UpdateConstraintsD1Ev
0x000a9d2e	40	_ZN5L6UUE17UpdateConstraintsD2Ev
0x0009d828	30	_ZN5L6UUE18IDevQueryInterfaceC1Ev
0x0009d828	30	_ZN5L6UUE18IDevQueryInterfaceC2Ev
0x0009dac4	59	_ZN5L6UUE19UpdateDevice_TypeIO11DeserializeEP8IOStreamPNS_11UpdateChunkE
0x0009d95c	59	_ZN5L6UUE19UpdateDevice_TypeIO11DeserializeEP8IOStreamPNS_12DeviceResultE
0x0009d998	59	_ZN5L6UUE19UpdateDevice_TypeIO11DeserializeEP8IOStreamPNS_12ProtocolInfoE
0x0009da88	59	_ZN5L6UUE19UpdateDevice_TypeIO11DeserializeEP8IOStreamPNS_17UpdateConstraintsE
0x0009d9d4	59	_ZN5L6UUE19UpdateDevice_TypeIO11DeserializeEP8IOStreamPNS_7DevInfoE
0x0009da4c	59	_ZN5L6UUE19UpdateDevice_TypeIO11DeserializeEP8IOStreamPNS_9ImageInfoE
0x0009da10	59	_ZN5L6UUE19UpdateDevice_TypeIO11DeserializeEP8IOStreamPj
0x0009f25a	59	_ZN5L6UUE19UpdateDevice_TypeIO11DeserializeIjEEiP8IOStreamPNS_8OptionalIT_EE
0x000a0954	132	_ZN5L6UUE19UpdateDevice_TypeIO11SerializeAsEP8IOStreambPvjjj
0x000a1ab2	88	_ZN5L6UUE19UpdateDevice_TypeIO11SerializeAsIhjEEiP8IOStreambPT0_j
0x000a1a5a	88	_ZN5L6UUE19UpdateDevice_TypeIO11SerializeAsIjNS_12DeviceResultEEEiP8IOStreambPT0_j
0x000a209a	88	_ZN5L6UUE19UpdateDevice_TypeIO11SerializeAsIjNS_7VersionEEEiP8IOStreambPT0_j
0x000a08e6	109	_ZN5L6UUE19UpdateDevice_TypeIO13SerializeElemEP8IOStreambPvjj
0x000a23ba	90	_ZN5L6UUE19UpdateDevice_TypeIO19Serialize_LargeWordIjEEiP8IOStreambPT_j
0x000a2040	90	_ZN5L6UUE19UpdateDevice_TypeIO19Serialize_SmallWordINS_11ImageStatusEEEiP8IOStreambPT_j
0x000a2a58	90	_ZN5L6UUE19UpdateDevice_TypeIO19Serialize_SmallWordINS_12ConstraintIDEEEiP8IOStreambPT_j
0x000a1a00	90	_ZN5L6UUE19UpdateDevice_TypeIO19Serialize_SmallWordINS_13UpdateCommandEEEiP8IOStreambPT_j
0x000a29fe	90	_ZN5L6UUE19UpdateDevice_TypeIO19Serialize_SmallWordINS_13UpdateParamIDEEEiP8IOStreambPT_j
0x000a2ab2	90	_ZN5L6UUE19UpdateDevice_TypeIO19Serialize_SmallWordINS_3Any4TypeEEEiP8IOStreambPT_j
0x000a28f0	90	_ZN5L6UUE19UpdateDevice_TypeIO19Serialize_SmallWordINS_8DevCapIDEEEiP8IOStreambPT_j
0x000a294a	90	_ZN5L6UUE19UpdateDevice_TypeIO19Serialize_SmallWordINS_9DevPropIDEEEiP8IOStreambPT_j
0x000a20f2	90	_ZN5L6UUE19UpdateDevice_TypeIO19Serialize_SmallWordINS_9ImageTypeEEEiP8IOStreambPT_j
0x000a29a4	90	_ZN5L6UUE19UpdateDevice_TypeIO19Serialize_SmallWordINS_9ImgMetaIDEEEiP8IOStreambPT_j
0x000a19a6	90	_ZN5L6UUE19UpdateDevice_TypeIO19Serialize_SmallWordIbEEiP8IOStreambPT_j
0x000a1b0a	90	_ZN5L6UUE19UpdateDevice_TypeIO19Serialize_SmallWordIjEEiP8IOStreambPT_j
0x000a15ca	500	_ZN5L6UUE19UpdateDevice_TypeIO6ReadAsEP8IOStreamPvjjj
0x000a17be	478	_ZN5L6UUE19UpdateDevice_TypeIO7WriteAsEP8IOStreamPKvjjj
0x0009d86c	59	_ZN5L6UUE19UpdateDevice_TypeIO9SerializeEP8IOStreamP5Empty
0x0009d920	59	_ZN5L6UUE19UpdateDevice_TypeIO9SerializeEP8IOStreamPNS_11UpdateChunkE
0x0009d8e4	59	_ZN5L6UUE19UpdateDevice_TypeIO9SerializeEP8IOStreamPNS_16UpdateParametersE
0x0009d8a8	59	_ZN5L6UUE19UpdateDevice_TypeIO9SerializeEP8IOStreamPj
0x000a13e8	277	_ZN5L6UUE19UpdateDevice_TypeIO9SerializeEP8IOStreambP10ElemBuffer
0x000a0a04	20	_ZN5L6UUE19UpdateDevice_TypeIO9SerializeEP8IOStreambP5Empty
0x000a10b0	189	_ZN5L6UUE19UpdateDevice_TypeIO9SerializeEP8IOStreambPNS_11ChunkHeaderE
0x000a11e2	73	_ZN5L6UUE19UpdateDevice_TypeIO9SerializeEP8IOStreambPNS_11ImageStatusE
0x000a116e	115	_ZN5L6UUE19UpdateDevice_TypeIO9SerializeEP8IOStreambPNS_11UpdateChunkE
0x000a139e	73	_ZN5L6UUE19UpdateDevice_TypeIO9SerializeEP8IOStreambPNS_12ConstraintIDE
0x000a0aac	73	_ZN5L6UUE19UpdateDevice_TypeIO9SerializeEP8IOStreambPNS_12DeviceResultE
0x000a0af6	250	_ZN5L6UUE19UpdateDevice_TypeIO9SerializeEP8IOStreambPNS_12ProtocolInfoE
0x000a0a62	73	_ZN5L6UUE19UpdateDevice_TypeIO9SerializeEP8IOStreambPNS_13UpdateCommandE
0x000a1354	73	_ZN5L6UUE19UpdateDevice_TypeIO9SerializeEP8IOStreambPNS_13UpdateParamIDE
0x000a0e92	417	_ZN5L6UUE19UpdateDevice_TypeIO9SerializeEP8IOStreambPNS_16UpdateParametersE
0x000a1034	123	_ZN5L6UUE19UpdateDevice_TypeIO9SerializeEP8IOStreambPNS_17UpdateConstraintsE
0x000a14fe	204	_ZN5L6UUE19UpdateDevice_TypeIO9SerializeEP8IOStreambPNS_3AnyE
0x000a0bf0	173	_ZN5L6UUE19UpdateDevice_TypeIO9SerializeEP8IOStreambPNS_7DevInfoE
0x000a1276	73	_ZN5L6UUE19UpdateDevice_TypeIO9SerializeEP8IOStreambPNS_8DevCapIDE
0x000a12c0	73	_ZN5L6UUE19UpdateDevice_TypeIO9SerializeEP8IOStreambPNS_9DevPropIDE
0x000a0ce8	425	_ZN5L6UUE19UpdateDevice_TypeIO9SerializeEP8IOStreambPNS_9ImageInfoE
0x000a122c	73	_ZN5L6UUE19UpdateDevice_TypeIO9SerializeEP8IOStreambPNS_9ImageTypeE
0x000a130a	73	_ZN5L6UUE19UpdateDevice_TypeIO9SerializeEP8IOStreambPNS_9ImgMetaIDE
0x000a0a18	73	_ZN5L6UUE19UpdateDevice_TypeIO9SerializeEP8IOStreambPb
0x000a0c9e	73	_ZN5L6UUE19UpdateDevice_TypeIO9SerializeEP8IOStreambPj
0x000a26a8	584	_ZN5L6UUE19UpdateDevice_TypeIO9SerializeINS_12ConstraintIDENS_3AnyEEEiP8IOStreambPNS_4DictIT_T0_EE
0x000a243a	584	_ZN5L6UUE19UpdateDevice_TypeIO9SerializeINS_13UpdateParamIDENS_3AnyEEEiP8IOStreambPNS_4DictIT_T0_EE
0x000a1b8a	584	_ZN5L6UUE19UpdateDevice_TypeIO9SerializeINS_8DevCapIDEbEEiP8IOStreambPNS_4DictIT_T0_EE
0x000a1df8	584	_ZN5L6UUE19UpdateDevice_TypeIO9SerializeINS_9DevPropIDENS_3AnyEEEiP8IOStreambPNS_4DictIT_T0_EE
0x000a2172	584	_ZN5L6UUE19UpdateDevice_TypeIO9SerializeINS_9ImgMetaIDENS_3AnyEEEiP8IOStreambPNS_4DictIT_T0_EE
0x0009f7e6	59	_ZN5L6UUE19UpdateDevice_TypeIO9SerializeIjEEiP8IOStreamPNS_8OptionalIT_EE
0x000a2b0c	146	_ZN5L6UUE19UpdateDevice_TypeIO9SerializeIjEEiP8IOStreambPNS_8OptionalIT_EE
0x000a09d8	43	_ZN5L6UUE19UpdateDevice_TypeIOC1ERNS_12ProtocolInfoE
0x000a09d8	43	_ZN5L6UUE19UpdateDevice_TypeIOC2ERNS_12ProtocolInfoE
0x000975fa	25	_ZN5L6UUE20IOStreamUpdateEngine6CancelEv
0x0009c4ba	1607	_ZN5L6UUE20IOStreamUpdateEngine9DoUpdatesERNS_12ImageArchiveEP8IOStreamRNS_12UpdateEngine13UpdateOptionsEP9IProgress
0x0009d7f4	51	_ZN5L6UUE22IDevUpdateInterface_V1C1Ev
0x0009d7f4	51	_ZN5L6UUE22IDevUpdateInterface_V1C2Ev
0x0009d75e	47	_ZN5L6UUE24IDevUpdateInterface_Base14DescribeResultERNS_12DeviceResultERSs
0x0009d7d6	30	_ZN5L6UUE24IDevUpdateInterface_BaseC1Ev
0x0009d7d6	30	_ZN5L6UUE24IDevUpdateInterface_BaseC2Ev
0x000a3262	37	_ZN5L6UUE4DictINS_12ConstraintIDENS_3AnyEE10GetIterKeyERNS3_4IterE
0x000a319e	37	_ZN5L6UUE4DictINS_12ConstraintIDENS_3AnyEE10NumEntriesEv
0x000a3288	40	_ZN5L6UUE4DictINS_12ConstraintIDENS_3AnyEE12GetIterValueERNS3_4IterE
0x000a32d6	59	_ZN5L6UUE4DictINS_12ConstraintIDENS_3AnyEE3AddERS1_RS2_
0x0009e832	134	_ZN5L6UUE4DictINS_12ConstraintIDENS_3AnyEE4FindERKS1_
0x000a2682	37	_ZN5L6UUE4DictINS_12ConstraintIDENS_3AnyEE4IterC1Ev
0x000a2682	37	_ZN5L6UUE4DictINS_12ConstraintIDENS_3AnyEE4IterC2Ev
0x000a32b0	37	_ZN5L6UUE4DictINS_12ConstraintIDENS_3AnyEE5ClearEv
0x000a323c	37	_ZN5L6UUE4DictINS_12ConstraintIDENS_3AnyEE8NextIterERNS3_4IterE
0x000a31c4	56	_ZN5L6UUE4DictINS_12ConstraintIDENS_3AnyEE9BeginIterERNS3_4IterE
0x000a31fc	64	_ZN5L6UUE4DictINS_12ConstraintIDENS_3AnyEE9IterValidERNS3_4IterE
0x000a9cba	37	_ZN5L6UUE4DictINS_12ConstraintIDENS_3AnyEEC1Ev
0x000a9cba	37	_ZN5L6UUE4DictINS_12ConstraintIDENS_3AnyEEC2Ev
0x000a9ce0	37	_ZN5L6UUE4DictINS_12ConstraintIDENS_3AnyEED1Ev
0x000a9ce0	37	_ZN5L6UUE4DictINS_12ConstraintIDENS_3AnyEED2Ev
0x000a30ee	37	_ZN5L6UUE4DictINS_13UpdateParamIDENS_3AnyEE10GetIterKeyERNS3_4IterE
0x000a302a	37	_ZN5L6UUE4DictINS_13UpdateParamIDENS_3AnyEE10NumEntriesEv
0x000a3114	40	_ZN5L6UUE4DictINS_13UpdateParamIDENS_3AnyEE12GetIterValueERNS3_4IterE
0x000a3162	59	_ZN5L6UUE4DictINS_13UpdateParamIDENS_3AnyEE3AddERS1_RS2_
0x000a2414	37	_ZN5L6UUE4DictINS_13UpdateParamIDENS_3AnyEE4IterC1Ev
0x000a2414	37	_ZN5L6UUE4DictINS_13UpdateParamIDENS_3AnyEE4IterC2Ev
0x000a313c	37	_ZN5L6UUE4DictINS_13UpdateParamIDENS_3AnyEE5ClearEv
0x000a30c8	37	_ZN5L6UUE4DictINS_13UpdateParamIDENS_3AnyEE8NextIterERNS3_4IterE
0x000a3050	56	_ZN5L6UUE4DictINS_13UpdateParamIDENS_3AnyEE9BeginIterERNS3_4IterE
0x000a3088	64	_ZN5L6UUE4DictINS_13UpdateParamIDENS_3AnyEE9IterValidERNS3_4IterE
0x000a9ba2	37	_ZN5L6UUE4DictINS_13UpdateParamIDENS_3AnyEEC1Ev
0x000a9ba2	37	_ZN5L6UUE4DictINS_13UpdateParamIDENS_3AnyEEC2Ev
0x000a9bc8	37	_ZN5L6UUE4DictINS_13UpdateParamIDENS_3AnyEED1Ev
0x000a9bc8	37	_ZN5L6UUE4DictINS_13UpdateParamIDENS_3AnyEED2Ev
0x000a2c70	37	_ZN5L6UUE4DictINS_8DevCapIDEbE10GetIterKeyERNS2_4IterE
0x000a2bac	37	_ZN5L6UUE4DictINS_8DevCapIDEbE10NumEntriesEv
0x000a2c96	40	_ZN5L6UUE4DictINS_8DevCapIDEbE12GetIterValueERNS2_4IterE
0x000a2ce4	52	_ZN5L6UUE4DictINS_8DevCapIDEbE3AddERS1_Rb
0x000ab81e	134	_ZN5L6UUE4DictINS_8DevCapIDEbE4FindERKS1_
0x000a1b64	37	_ZN5L6UUE4DictINS_8DevCapIDEbE4IterC1Ev
0x000a1b64	37	_ZN5L6UUE4DictINS_8DevCapIDEbE4IterC2Ev
0x000a2cbe	37	_ZN5L6UUE4DictINS_8DevCapIDEbE5ClearEv
0x000a2c4a	37	_ZN5L6UUE4DictINS_8DevCapIDEbE8NextIterERNS2_4IterE
0x000a2bd2	56	_ZN5L6UUE4DictINS_8DevCapIDEbE9BeginIterERNS2_4IterE
0x000a2c0a	64	_ZN5L6UUE4DictINS_8DevCapIDEbE9IterValidERNS2_4IterE
0x000a91ac	37	_ZN5L6UUE4DictINS_8DevCapIDEbEC1Ev
0x000a91ac	37	_ZN5L6UUE4DictINS_8DevCapIDEbEC2Ev
0x000a91d2	37	_ZN5L6UUE4DictINS_8DevCapIDEbED1Ev
0x000a91d2	37	_ZN5L6UUE4DictINS_8DevCapIDEbED2Ev
0x000a2dea	37	_ZN5L6UUE4DictINS_9DevPropIDENS_3AnyEE10GetIterKeyERNS3_4IterE
0x000a2d26	37	_ZN5L6UUE4DictINS_9DevPropIDENS_3AnyEE10NumEntriesEv
0x000a2e10	40	_ZN5L6UUE4DictINS_9DevPropIDENS_3AnyEE12GetIterValueERNS3_4IterE
0x000a2e5e	59	_ZN5L6UUE4DictINS_9DevPropIDENS_3AnyEE3AddERS1_RS2_
0x000a1dd2	37	_ZN5L6UUE4DictINS_9DevPropIDENS_3AnyEE4IterC1Ev
0x000a1dd2	37	_ZN5L6UUE4DictINS_9DevPropIDENS_3AnyEE4IterC2Ev
0x000a2e38	37	_ZN5L6UUE4DictINS_9DevPropIDENS_3AnyEE5ClearEv
0x000a2dc4	37	_ZN5L6UUE4DictINS_9DevPropIDENS_3AnyEE8NextIterERNS3_4IterE
0x000a2d4c	56	_ZN5L6UUE4DictINS_9DevPropIDENS_3AnyEE9BeginIterERNS3_4IterE
0x000a2d84	64	_ZN5L6UUE4DictINS_9DevPropIDENS_3AnyEE9IterValidERNS3_4IterE
0x000a921e	37	_ZN5L6UUE4DictINS_9DevPropIDENS_3AnyEEC1Ev
0x000a921e	37	_ZN5L6UUE4DictINS_9DevPropIDENS_3AnyEEC2Ev
0x000a9244	37	_ZN5L6UUE4DictINS_9DevPropIDENS_3AnyEED1Ev
0x000a9244	37	_ZN5L6UUE4DictINS_9DevPropIDENS_3AnyEED2Ev
0x000a2f6c	37	_ZN5L6UUE4DictINS_9ImgMetaIDENS_3AnyEE10GetIterKeyERNS3_4IterE
0x000a2ea8	37	_ZN5L6UUE4DictINS_9ImgMetaIDENS_3AnyEE10NumEntriesEv
0x000a2f92	40	_ZN5L6UUE4DictINS_9ImgMetaIDENS_3AnyEE12GetIterValueERNS3_4IterE
0x000a2fe0	59	_ZN5L6UUE4DictINS_9ImgMetaIDENS_3AnyEE3AddERS1_RS2_
0x000a214c	37	_ZN5L6UUE4DictINS_9ImgMetaIDENS_3AnyEE4IterC1Ev
0x000a214c	37	_ZN5L6UUE4DictINS_9ImgMetaIDENS_3AnyEE4IterC2Ev
0x000a2fba	37	_ZN5L6UUE4DictINS_9ImgMetaIDENS_3AnyEE5ClearEv
0x000a2f46	37	_ZN5L6UUE4DictINS_9ImgMetaIDENS_3AnyEE8NextIterERNS3_4IterE
0x000a2ece	56	_ZN5L6UUE4DictINS_9ImgMetaIDENS_3AnyEE9BeginIterERNS3_4IterE
0x000a2f06	64	_ZN5L6UUE4DictINS_9ImgMetaIDENS_3AnyEE9IterValidERNS3_4IterE
0x000abf08	44	_ZN5L6UUE4DictINS_9ImgMetaIDENS_3AnyEEC1ERKS3_
0x000a9d7c	37	_ZN5L6UUE4DictINS_9ImgMetaIDENS_3AnyEEC1Ev
0x000abf08	44	_ZN5L6UUE4DictINS_9ImgMetaIDENS_3AnyEEC2ERKS3_
0x000a9d7c	37	_ZN5L6UUE4DictINS_9ImgMetaIDENS_3AnyEEC2Ev
0x000a9da2	37	_ZN5L6UUE4DictINS_9ImgMetaIDENS_3AnyEED1Ev
0x000a9da2	37	_ZN5L6UUE4DictINS_9ImgMetaIDENS_3AnyEED2Ev
0x000aad4e	47	_ZN5L6UUE4DictINS_9ImgMetaIDENS_3AnyEEaSERKS3_
0x000a926a	84	_ZN5L6UUE7DevInfoC1Ev
0x000a926a	84	_ZN5L6UUE7DevInfoC2Ev
0x000a92be	82	_ZN5L6UUE7DevInfoD1Ev
0x000a92be	82	_ZN5L6UUE7DevInfoD2Ev
0x0009c440	15	_ZN5L6UUE7VersionC1ERKS0_
0x0009902a	44	_ZN5L6UUE7VersionC1Ej
0x0009c440	15	_ZN5L6UUE7VersionC2ERKS0_
0x0009902a	44	_ZN5L6UUE7VersionC2Ej
0x00099056	13	_ZN5L6UUE7VersionaSEj
0x000ab40e	11	_ZN5L6UUE8OptionalIjEC1Ev
0x000ab40e	11	_ZN5L6UUE8OptionalIjEC2Ev
0x00098eaa	138	_ZN5L6UUE9ExceptionC1EPKc
0x00098eaa	138	_ZN5L6UUE9ExceptionC2EPKc
0x00098ffa	48	_ZN5L6UUE9ExceptionD0Ev
0x00098f72	135	_ZN5L6UUE9ExceptionD1Ev
0x00098f72	135	_ZN5L6UUE9ExceptionD2Ev
0x000abf34	134	_ZN5L6UUE9ImageInfoC1ERKS0_
0x000a9dc8	62	_ZN5L6UUE9ImageInfoC1Ev
0x000abf34	134	_ZN5L6UUE9ImageInfoC2ERKS0_
0x000a9dc8	62	_ZN5L6UUE9ImageInfoC2Ev
0x000a9e06	40	_ZN5L6UUE9ImageInfoD1Ev
0x000a9e06	40	_ZN5L6UUE9ImageInfoD2Ev
0x000aad7e	125	_ZN5L6UUE9ImageInfoaSERKS0_
0x0009739e	13	_ZN5L6UUE9UUEResult6FailedEv
0x0009c430	15	_ZN5L6UUE9UUEResult7SuccessEv
0x00097380	13	_ZN5L6UUE9UUEResultC1ENS0_4CodeE
0x0009738e	15	_ZN5L6UUE9UUEResultC1ERKS0_
0x0009d758	5	_ZN5L6UUE9UUEResultC1Ev
0x00097380	13	_ZN5L6UUE9UUEResultC2ENS0_4CodeE
0x0009738e	15	_ZN5L6UUE9UUEResultC2ERKS0_
0x0009d758	5	_ZN5L6UUE9UUEResultC2Ev
0x000a8804	10	_ZN5L6UUE9UUEResultcvNS0_4CodeEEv
0x00099b20	37	_ZN6BufferIh11Alloc_BasicEC1Ev
0x00099b20	37	_ZN6BufferIh11Alloc_BasicEC2Ev
0x00099b46	37	_ZN6BufferIh11Alloc_BasicED1Ev
0x00099b46	37	_ZN6BufferIh11Alloc_BasicED2Ev
0x00081528	199	_ZN6L6File11getPositionEv
0x000812fc	555	_ZN6L6File11setPositionEx9eSeekType
0x00081744	156	_ZN6L6File18acquireFileSectionExx
0x000817e0	556	_ZN6L6File20contentsAsDataBufferER8L6Buffer
0x00080d92	570	_ZN6L6File4openEbbb
0x0008101e	378	_ZN6L6File4readEPvj
0x00080fcc	82	_ZN6L6File5closeEv
0x00081198	355	_ZN6L6File5writeEPKvj
0x0008167c	200	_ZN6L6File6setEOFEv
0x000815f0	140	_ZN6L6File7getSizeEv
0x00080b04	207	_ZN6L6FileC1ERK8L6String
0x00080bd4	227	_ZN6L6FileC1ERK8L6Stringxx
0x00080b04	207	_ZN6L6FileC2ERK8L6String
0x00080bd4	227	_ZN6L6FileC2ERK8L6Stringxx
0x00080d62	48	_ZN6L6FileD0Ev
0x00080cb8	169	_ZN6L6FileD1Ev
0x00080cb8	169	_ZN6L6FileD2Ev
0x0008645e	508	_ZN6L6Json4readERK8L6BufferR9L6VariantP8L6String
0x00086276	310	_ZN6L6Json5writeERK9L6VariantR8L6Buffer
0x0007a38a	134	_ZN6L6ListI12L6DictionaryI9L6VariantS1_EE10removeHeadEv
0x0007ace8	134	_ZN6L6ListI12L6DictionaryI9L6VariantS1_EE10removeTailEv
0x0007a226	50	_ZN6L6ListI12L6DictionaryI9L6VariantS1_EE3endEv
0x0007a1c6	52	_ZN6L6ListI12L6DictionaryI9L6VariantS1_EE4headEv
0x0007ad6e	66	_ZN6L6ListI12L6DictionaryI9L6VariantS1_EE5_nodeC1ERKS2_
0x0007ad6e	66	_ZN6L6ListI12L6DictionaryI9L6VariantS1_EE5_nodeC2ERKS2_
0x0007a122	40	_ZN6L6ListI12L6DictionaryI9L6VariantS1_EE5_nodeD1Ev
0x0007a122	40	_ZN6L6ListI12L6DictionaryI9L6VariantS1_EE5_nodeD2Ev
0x0007a14a	112	_ZN6L6ListI12L6DictionaryI9L6VariantS1_EE5clearEv
0x0007a4a4	267	_ZN6L6ListI12L6DictionaryI9L6VariantS1_EE6removeERNS3_8iteratorE
0x0007a62e	190	_ZN6L6ListI12L6DictionaryI9L6VariantS1_EE7addTailERKS2_
0x0007abfe	13	_ZN6L6ListI12L6DictionaryI9L6VariantS1_EE8iteratorC1EPNS3_5_nodeE
0x0007a1fa	44	_ZN6L6ListI12L6DictionaryI9L6VariantS1_EE8iteratorC1ERKS4_
0x0007abfe	13	_ZN6L6ListI12L6DictionaryI9L6VariantS1_EE8iteratorC2EPNS3_5_nodeE
0x0007a1fa	44	_ZN6L6ListI12L6DictionaryI9L6VariantS1_EE8iteratorC2ERKS4_
0x0007a5b0	18	_ZN6L6ListI12L6DictionaryI9L6VariantS1_EE8iteratoraSERKS4_
0x0007a26c	108	_ZN6L6ListI12L6DictionaryI9L6VariantS1_EE8iteratordeEv
0x0007a258	20	_ZN6L6ListI12L6DictionaryI9L6VariantS1_EE8iteratoreqERKS4_
0x0007a490	20	_ZN6L6ListI12L6DictionaryI9L6VariantS1_EE8iteratorneERKS4_
0x0007a5c2	107	_ZN6L6ListI12L6DictionaryI9L6VariantS1_EE8iteratorppEi
0x0007ac92	86	_ZN6L6ListI12L6DictionaryI9L6VariantS1_EE8iteratorppEv
0x0007a06a	62	_ZN6L6ListI12L6DictionaryI9L6VariantS1_EEC1Ev
0x0007a06a	62	_ZN6L6ListI12L6DictionaryI9L6VariantS1_EEC2Ev
0x0007a0f2	48	_ZN6L6ListI12L6DictionaryI9L6VariantS1_EED0Ev
0x0007a0a8	74	_ZN6L6ListI12L6DictionaryI9L6VariantS1_EED1Ev
0x0007a0a8	74	_ZN6L6ListI12L6DictionaryI9L6VariantS1_EED2Ev
0x000d7794	120	_ZN6L6ListIN23L6EdLibThreadEventQueue5EventEE10removeHeadEv
0x000d75be	50	_ZN6L6ListIN23L6EdLibThreadEventQueue5EventEE3endEv
0x000d7578	52	_ZN6L6ListIN23L6EdLibThreadEventQueue5EventEE4headEv
0x000d7c8a	53	_ZN6L6ListIN23L6EdLibThreadEventQueue5EventEE5_nodeC1ERKS1_
0x000d7c8a	53	_ZN6L6ListIN23L6EdLibThreadEventQueue5EventEE5_nodeC2ERKS1_
0x000d7c28	98	_ZN6L6ListIN23L6EdLibThreadEventQueue5EventEE5clearEv
0x000d76c6	189	_ZN6L6ListIN23L6EdLibThreadEventQueue5EventEE7addHeadERKS1_
0x000d74ac	190	_ZN6L6ListIN23L6EdLibThreadEventQueue5EventEE7addTailERKS1_
0x000d756a	13	_ZN6L6ListIN23L6EdLibThreadEventQueue5EventEE8iteratorC1EPNS2_5_nodeE
0x000d756a	13	_ZN6L6ListIN23L6EdLibThreadEventQueue5EventEE8iteratorC2EPNS2_5_nodeE
0x000d75ac	18	_ZN6L6ListIN23L6EdLibThreadEventQueue5EventEE8iteratoraSERKS3_
0x000d765a	108	_ZN6L6ListIN23L6EdLibThreadEventQueue5EventEE8iteratordeEv
0x000d75f0	20	_ZN6L6ListIN23L6EdLibThreadEventQueue5EventEE8iteratorneERKS3_
0x000d7604	86	_ZN6L6ListIN23L6EdLibThreadEventQueue5EventEE8iteratorppEv
0x000d73f4	62	_ZN6L6ListIN23L6EdLibThreadEventQueue5EventEEC1Ev
0x000d73f4	62	_ZN6L6ListIN23L6EdLibThreadEventQueue5EventEEC2Ev
0x000d747c	48	_ZN6L6ListIN23L6EdLibThreadEventQueue5EventEED0Ev
0x000d7432	74	_ZN6L6ListIN23L6EdLibThreadEventQueue5EventEED1Ev
0x000d7432	74	_ZN6L6ListIN23L6EdLibThreadEventQueue5EventEED2Ev
0x000b693a	120	_ZN6L6ListIN25L6EdLibNotificationCenter8ObserverEE10removeHeadEv
0x000b69b2	120	_ZN6L6ListIN25L6EdLibNotificationCenter8ObserverEE10removeTailEv
0x000b61f0	50	_ZN6L6ListIN25L6EdLibNotificationCenter8ObserverEE3endEv
0x000b61aa	52	_ZN6L6ListIN25L6EdLibNotificationCenter8ObserverEE4headEv
0x000b6910	41	_ZN6L6ListIN25L6EdLibNotificationCenter8ObserverEE5_nodeC1ERKS1_
0x000b6910	41	_ZN6L6ListIN25L6EdLibNotificationCenter8ObserverEE5_nodeC2ERKS1_
0x000b685e	98	_ZN6L6ListIN25L6EdLibNotificationCenter8ObserverEE5clearEv
0x000b63b6	253	_ZN6L6ListIN25L6EdLibNotificationCenter8ObserverEE6removeERNS2_8iteratorE
0x000b62f8	190	_ZN6L6ListIN25L6EdLibNotificationCenter8ObserverEE7addTailERKS1_
0x000b619c	13	_ZN6L6ListIN25L6EdLibNotificationCenter8ObserverEE8iteratorC1EPNS2_5_nodeE
0x000b68e4	44	_ZN6L6ListIN25L6EdLibNotificationCenter8ObserverEE8iteratorC1ERKS3_
0x000b619c	13	_ZN6L6ListIN25L6EdLibNotificationCenter8ObserverEE8iteratorC2EPNS2_5_nodeE
0x000b68e4	44	_ZN6L6ListIN25L6EdLibNotificationCenter8ObserverEE8iteratorC2ERKS3_
0x000b61de	18	_ZN6L6ListIN25L6EdLibNotificationCenter8ObserverEE8iteratoraSERKS3_
0x000b628c	108	_ZN6L6ListIN25L6EdLibNotificationCenter8ObserverEE8iteratordeEv
0x000b6222	20	_ZN6L6ListIN25L6EdLibNotificationCenter8ObserverEE8iteratorneERKS3_
0x000b6236	86	_ZN6L6ListIN25L6EdLibNotificationCenter8ObserverEE8iteratorppEv
0x000b5f96	62	_ZN6L6ListIN25L6EdLibNotificationCenter8ObserverEEC1Ev
0x000b5f96	62	_ZN6L6ListIN25L6EdLibNotificationCenter8ObserverEEC2Ev
0x000b5eda	48	_ZN6L6ListIN25L6EdLibNotificationCenter8ObserverEED0Ev
0x000b5e90	74	_ZN6L6ListIN25L6EdLibNotificationCenter8ObserverEED1Ev
0x000b5e90	74	_ZN6L6ListIN25L6EdLibNotificationCenter8ObserverEED2Ev
0x000f798c	120	_ZN6L6ListIP19toneMatchEventTokenE10removeHeadEv
0x000f7ae2	50	_ZN6L6ListIP19toneMatchEventTokenE3endEv
0x000f78ec	52	_ZN6L6ListIP19toneMatchEventTokenE4headEv
0x000f7e92	35	_ZN6L6ListIP19toneMatchEventTokenE5_nodeC1ERKS1_
0x000f7e92	35	_ZN6L6ListIP19toneMatchEventTokenE5_nodeC2ERKS1_
0x000f7c9c	98	_ZN6L6ListIP19toneMatchEventTokenE5clearEv
0x000f7a04	190	_ZN6L6ListIP19toneMatchEventTokenE7addTailERKS1_
0x000f7ac2	13	_ZN6L6ListIP19toneMatchEventTokenE8iteratorC1EPNS2_5_nodeE
0x000f7ac2	13	_ZN6L6ListIP19toneMatchEventTokenE8iteratorC2EPNS2_5_nodeE
0x000f7ad0	18	_ZN6L6ListIP19toneMatchEventTokenE8iteratoraSERKS3_
0x000f7920	108	_ZN6L6ListIP19toneMatchEventTokenE8iteratordeEv
0x000f7b14	20	_ZN6L6ListIP19toneMatchEventTokenE8iteratorneERKS3_
0x000f7b28	86	_ZN6L6ListIP19toneMatchEventTokenE8iteratorppEv
0x000f7db6	62	_ZN6L6ListIP19toneMatchEventTokenEC1Ev
0x000f7db6	62	_ZN6L6ListIP19toneMatchEventTokenEC2Ev
0x000f7e3e	48	_ZN6L6ListIP19toneMatchEventTokenED0Ev
0x000f7df4	74	_ZN6L6ListIP19toneMatchEventTokenED1Ev
0x000f7df4	74	_ZN6L6ListIP19toneMatchEventTokenED2Ev
0x000f77a6	120	_ZN6L6ListIP24toneMatchEditorXferTokenE10removeHeadEv
0x000f7b9e	50	_ZN6L6ListIP24toneMatchEditorXferTokenE3endEv
0x000f7706	52	_ZN6L6ListIP24toneMatchEditorXferTokenE4headEv
0x000f7e6e	35	_ZN6L6ListIP24toneMatchEditorXferTokenE5_nodeC1ERKS1_
0x000f7e6e	35	_ZN6L6ListIP24toneMatchEditorXferTokenE5_nodeC2ERKS1_
0x000f7c3a	98	_ZN6L6ListIP24toneMatchEditorXferTokenE5clearEv
0x000f781e	190	_ZN6L6ListIP24toneMatchEditorXferTokenE7addTailERKS1_
0x000f7b7e	13	_ZN6L6ListIP24toneMatchEditorXferTokenE8iteratorC1EPNS2_5_nodeE
0x000f7b7e	13	_ZN6L6ListIP24toneMatchEditorXferTokenE8iteratorC2EPNS2_5_nodeE
0x000f7b8c	18	_ZN6L6ListIP24toneMatchEditorXferTokenE8iteratoraSERKS3_
0x000f773a	108	_ZN6L6ListIP24toneMatchEditorXferTokenE8iteratordeEv
0x000f7bd0	20	_ZN6L6ListIP24toneMatchEditorXferTokenE8iteratorneERKS3_
0x000f7be4	86	_ZN6L6ListIP24toneMatchEditorXferTokenE8iteratorppEv
0x000f7cfe	62	_ZN6L6ListIP24toneMatchEditorXferTokenEC1Ev
0x000f7cfe	62	_ZN6L6ListIP24toneMatchEditorXferTokenEC2Ev
0x000f7d86	48	_ZN6L6ListIP24toneMatchEditorXferTokenED0Ev
0x000f7d3c	74	_ZN6L6ListIP24toneMatchEditorXferTokenED1Ev
0x000f7d3c	74	_ZN6L6ListIP24toneMatchEditorXferTokenED2Ev
0x000fcd34	120	_ZN6L6ListIP27toneMatchLibrarianXferTokenE10removeHeadEv
0x000fce8a	50	_ZN6L6ListIP27toneMatchLibrarianXferTokenE3endEv
0x000fcc94	52	_ZN6L6ListIP27toneMatchLibrarianXferTokenE4headEv
0x000fd040	35	_ZN6L6ListIP27toneMatchLibrarianXferTokenE5_nodeC1ERKS1_
0x000fd040	35	_ZN6L6ListIP27toneMatchLibrarianXferTokenE5_nodeC2ERKS1_
0x000fcf26	98	_ZN6L6ListIP27toneMatchLibrarianXferTokenE5clearEv
0x000fcdac	190	_ZN6L6ListIP27toneMatchLibrarianXferTokenE7addTailERKS1_
0x000fce6a	13	_ZN6L6ListIP27toneMatchLibrarianXferTokenE8iteratorC1EPNS2_5_nodeE
0x000fce6a	13	_ZN6L6ListIP27toneMatchLibrarianXferTokenE8iteratorC2EPNS2_5_nodeE
0x000fce78	18	_ZN6L6ListIP27toneMatchLibrarianXferTokenE8iteratoraSERKS3_
0x000fccc8	108	_ZN6L6ListIP27toneMatchLibrarianXferTokenE8iteratordeEv
0x000fcebc	20	_ZN6L6ListIP27toneMatchLibrarianXferTokenE8iteratorneERKS3_
0x000fced0	86	_ZN6L6ListIP27toneMatchLibrarianXferTokenE8iteratorppEv
0x000fcf88	62	_ZN6L6ListIP27toneMatchLibrarianXferTokenEC1Ev
0x000fcf88	62	_ZN6L6ListIP27toneMatchLibrarianXferTokenEC2Ev
0x000fd010	48	_ZN6L6ListIP27toneMatchLibrarianXferTokenED0Ev
0x000fcfc6	74	_ZN6L6ListIP27toneMatchLibrarianXferTokenED1Ev
0x000fcfc6	74	_ZN6L6ListIP27toneMatchLibrarianXferTokenED2Ev
0x000b6a2a	120	_ZN6L6ListIPS_IN25L6EdLibNotificationCenter8ObserverEEE10removeHeadEv
0x000b6aa2	120	_ZN6L6ListIPS_IN25L6EdLibNotificationCenter8ObserverEEE10removeTailEv
0x000b5d88	50	_ZN6L6ListIPS_IN25L6EdLibNotificationCenter8ObserverEEE3endEv
0x000b65bc	116	_ZN6L6ListIPS_IN25L6EdLibNotificationCenter8ObserverEEE4findERKS3_
0x000b5d42	52	_ZN6L6ListIPS_IN25L6EdLibNotificationCenter8ObserverEEE4headEv
0x000b68c0	35	_ZN6L6ListIPS_IN25L6EdLibNotificationCenter8ObserverEEE5_nodeC1ERKS3_
0x000b68c0	35	_ZN6L6ListIPS_IN25L6EdLibNotificationCenter8ObserverEEE5_nodeC2ERKS3_
0x000b67d0	98	_ZN6L6ListIPS_IN25L6EdLibNotificationCenter8ObserverEEE5clearEv
0x000b6630	253	_ZN6L6ListIPS_IN25L6EdLibNotificationCenter8ObserverEEE6removeERNS4_8iteratorE
0x000b5fd4	190	_ZN6L6ListIPS_IN25L6EdLibNotificationCenter8ObserverEEE7addTailERKS3_
0x000b5d34	13	_ZN6L6ListIPS_IN25L6EdLibNotificationCenter8ObserverEEE8iteratorC1EPNS4_5_nodeE
0x000b6832	44	_ZN6L6ListIPS_IN25L6EdLibNotificationCenter8ObserverEEE8iteratorC1ERKS5_
0x000b5d34	13	_ZN6L6ListIPS_IN25L6EdLibNotificationCenter8ObserverEEE8iteratorC2EPNS4_5_nodeE
0x000b6832	44	_ZN6L6ListIPS_IN25L6EdLibNotificationCenter8ObserverEEE8iteratorC2ERKS5_
0x000b5d76	18	_ZN6L6ListIPS_IN25L6EdLibNotificationCenter8ObserverEEE8iteratoraSERKS5_
0x000b5e24	108	_ZN6L6ListIPS_IN25L6EdLibNotificationCenter8ObserverEEE8iteratordeEv
0x000b5dba	20	_ZN6L6ListIPS_IN25L6EdLibNotificationCenter8ObserverEEE8iteratorneERKS5_
0x000b5dce	86	_ZN6L6ListIPS_IN25L6EdLibNotificationCenter8ObserverEEE8iteratorppEv
0x000b5c7c	62	_ZN6L6ListIPS_IN25L6EdLibNotificationCenter8ObserverEEEC1Ev
0x000b5c7c	62	_ZN6L6ListIPS_IN25L6EdLibNotificationCenter8ObserverEEEC2Ev
0x000b5d04	48	_ZN6L6ListIPS_IN25L6EdLibNotificationCenter8ObserverEEED0Ev
0x000b5cba	74	_ZN6L6ListIPS_IN25L6EdLibNotificationCenter8ObserverEEED1Ev
0x000b5cba	74	_ZN6L6ListIPS_IN25L6EdLibNotificationCenter8ObserverEEED2Ev
0x000843f0	43	_ZN6L6Lock4lockEv
0x0008441c	43	_ZN6L6Lock6unlockEv
0x00084448	48	_ZN6L6Lock7trylockEv
0x000842dc	123	_ZN6L6LockC1Ev
0x000842dc	123	_ZN6L6LockC2Ev
0x000843c0	48	_ZN6L6LockD0Ev
0x00084358	104	_ZN6L6LockD1Ev
0x00084358	104	_ZN6L6LockD2Ev
0x00080ae6	30	_ZN7IL6FileC1Ev
0x00080ae6	30	_ZN7IL6FileC2Ev
0x00080aaa	48	_ZN7IL6FileD0Ev
0x00080a6a	63	_ZN7IL6FileD1Ev
0x00080a6a	63	_ZN7IL6FileD2Ev
0x00098e1a	113	_ZN7L6ArrayI8DataInfoE11bloatCreateEv
0x00098af4	120	_ZN7L6ArrayI8DataInfoE5clearEv
0x00098b72	299	_ZN7L6ArrayI8DataInfoE6appendERKS0_
0x00098c9e	209	_ZN7L6ArrayI8DataInfoEC1Ejj
0x00098c9e	209	_ZN7L6ArrayI8DataInfoEC2Ejj
0x00098dd2	48	_ZN7L6ArrayI8DataInfoED0Ev
0x00098d70	98	_ZN7L6ArrayI8DataInfoED1Ev
0x00098d70	98	_ZN7L6ArrayI8DataInfoED2Ev
0x000c146e	115	_ZN7L6ArrayI8L6StringE11bloatCreateEv
0x000c15a6	50	_ZN7L6ArrayI8L6StringE3getEj
0x000c10a6	120	_ZN7L6ArrayI8L6StringE5clearEv
0x000c111e	321	_ZN7L6ArrayI8L6StringE6appendERKS0_
0x000c12c6	209	_ZN7L6ArrayI8L6StringEC1Ejj
0x000c12c6	209	_ZN7L6ArrayI8L6StringEC2Ejj
0x000c13fa	48	_ZN7L6ArrayI8L6StringED0Ev
0x000c1398	98	_ZN7L6ArrayI8L6StringED1Ev
0x000c1398	98	_ZN7L6ArrayI8L6StringED2Ev
0x000c1442	44	_ZN7L6ArrayI8L6StringEixEj
0x0007aae2	119	_ZN7L6ArrayI9L6VariantE11bloatCreateEv
0x000701ac	50	_ZN7L6ArrayI9L6VariantE3getEj
0x000701de	126	_ZN7L6ArrayI9L6VariantE5clearEv
0x00079d20	339	_ZN7L6ArrayI9L6VariantE6appendERKS0_
0x000bc79c	419	_ZN7L6ArrayI9L6VariantE6removeEj
0x00079ba2	68	_ZN7L6ArrayI9L6VariantEC1ERKS1_
0x000700c2	209	_ZN7L6ArrayI9L6VariantEC1Ejj
0x00079ba2	68	_ZN7L6ArrayI9L6VariantEC2ERKS1_
0x000700c2	209	_ZN7L6ArrayI9L6VariantEC2Ejj
0x000702be	48	_ZN7L6ArrayI9L6VariantED0Ev
0x0007025c	98	_ZN7L6ArrayI9L6VariantED1Ev
0x0007025c	98	_ZN7L6ArrayI9L6VariantED2Ev
0x0007a6ec	368	_ZN7L6ArrayI9L6VariantEaSERKS1_
0x000702ee	44	_ZN7L6ArrayI9L6VariantEixEj
0x0008b536	115	_ZN7L6ArrayIP19IDevicePortObserverE11bloatCreateEv
0x0008b5aa	50	_ZN7L6ArrayIP19IDevicePortObserverE3getEj
0x0008b1a0	92	_ZN7L6ArrayIP19IDevicePortObserverE5clearEv
0x0008b266	283	_ZN7L6ArrayIP19IDevicePortObserverE6appendERKS1_
0x0008b382	368	_ZN7L6ArrayIP19IDevicePortObserverE6removeEj
0x0008b03c	209	_ZN7L6ArrayIP19IDevicePortObserverEC1Ejj
0x0008b03c	209	_ZN7L6ArrayIP19IDevicePortObserverEC2Ejj
0x0008b170	48	_ZN7L6ArrayIP19IDevicePortObserverED0Ev
0x0008b10e	98	_ZN7L6ArrayIP19IDevicePortObserverED1Ev
0x0008b10e	98	_ZN7L6ArrayIP19IDevicePortObserverED2Ev
0x0008b50a	44	_ZN7L6ArrayIP19IDevicePortObserverEixEj
0x000b4d5c	115	_ZN7L6ArrayIPN16L6EdLibModelDefs8ModelDefEE11bloatCreateEv
0x000b4d2a	50	_ZN7L6ArrayIPN16L6EdLibModelDefs8ModelDefEE3getEj
0x000b4596	92	_ZN7L6ArrayIPN16L6EdLibModelDefs8ModelDefEE5clearEv
0x000b45f2	283	_ZN7L6ArrayIPN16L6EdLibModelDefs8ModelDefEE6appendERKS2_
0x000b470e	368	_ZN7L6ArrayIPN16L6EdLibModelDefs8ModelDefEE6removeEj
0x000b4284	209	_ZN7L6ArrayIPN16L6EdLibModelDefs8ModelDefEEC1Ejj
0x000b4284	209	_ZN7L6ArrayIPN16L6EdLibModelDefs8ModelDefEEC2Ejj
0x000b43b8	48	_ZN7L6ArrayIPN16L6EdLibModelDefs8ModelDefEED0Ev
0x000b4356	98	_ZN7L6ArrayIPN16L6EdLibModelDefs8ModelDefEED1Ev
0x000b4356	98	_ZN7L6ArrayIPN16L6EdLibModelDefs8ModelDefEED2Ev
0x000b456a	44	_ZN7L6ArrayIPN16L6EdLibModelDefs8ModelDefEEixEj
0x000b4bee	115	_ZN7L6ArrayIPN16L6EdLibModelDefs8ParamDefEE11bloatCreateEv
0x000b4b08	50	_ZN7L6ArrayIPN16L6EdLibModelDefs8ParamDefEE3getEj
0x000b3f76	92	_ZN7L6ArrayIPN16L6EdLibModelDefs8ParamDefEE5clearEv
0x000b40dc	283	_ZN7L6ArrayIPN16L6EdLibModelDefs8ParamDefEE6appendERKS2_
0x000b3c64	209	_ZN7L6ArrayIPN16L6EdLibModelDefs8ParamDefEEC1Ejj
0x000b3c64	209	_ZN7L6ArrayIPN16L6EdLibModelDefs8ParamDefEEC2Ejj
0x000b3d98	48	_ZN7L6ArrayIPN16L6EdLibModelDefs8ParamDefEED0Ev
0x000b3d36	98	_ZN7L6ArrayIPN16L6EdLibModelDefs8ParamDefEED1Ev
0x000b3d36	98	_ZN7L6ArrayIPN16L6EdLibModelDefs8ParamDefEED2Ev
0x000b3f4a	44	_ZN7L6ArrayIPN16L6EdLibModelDefs8ParamDefEEixEj
0x000bdaf6	115	_ZN7L6ArrayIPN17L6EdLibParamGroup5PARAMEE11bloatCreateEv
0x000bdb6a	50	_ZN7L6ArrayIPN17L6EdLibParamGroup5PARAMEE3getEj
0x000bd374	92	_ZN7L6ArrayIPN17L6EdLibParamGroup5PARAMEE5clearEv
0x000bcd22	283	_ZN7L6ArrayIPN17L6EdLibParamGroup5PARAMEE6appendERKS2_
0x000bd136	368	_ZN7L6ArrayIPN17L6EdLibParamGroup5PARAMEE6removeEj
0x000bca10	209	_ZN7L6ArrayIPN17L6EdLibParamGroup5PARAMEEC1Ejj
0x000bca10	209	_ZN7L6ArrayIPN17L6EdLibParamGroup5PARAMEEC2Ejj
0x000bcb44	48	_ZN7L6ArrayIPN17L6EdLibParamGroup5PARAMEED0Ev
0x000bcae2	98	_ZN7L6ArrayIPN17L6EdLibParamGroup5PARAMEED1Ev
0x000bcae2	98	_ZN7L6ArrayIPN17L6EdLibParamGroup5PARAMEED2Ev
0x000bd2a6	44	_ZN7L6ArrayIPN17L6EdLibParamGroup5PARAMEEixEj
0x0008fd90	115	_ZN7L6ArrayIjE11bloatCreateEv
0x0008f64a	92	_ZN7L6ArrayIjE5clearEv
0x0008f712	283	_ZN7L6ArrayIjE6appendERKj
0x0008f93a	209	_ZN7L6ArrayIjEC1Ejj
0x0008f93a	209	_ZN7L6ArrayIjEC2Ejj
0x0008fa6e	48	_ZN7L6ArrayIjED0Ev
0x0008fa0c	98	_ZN7L6ArrayIjED1Ev
0x0008fa0c	98	_ZN7L6ArrayIjED2Ev
0x000af9fc	339	_ZN7L6CRC324calcEPKvjj
0x000afb4f	81	_ZN7L6CRC327reflectEji
0x000aeda2	139	_ZN7L6EdLib12CreateEditorE11eEdLibClass
0x000aee2e	68	_ZN7L6EdLib13DestroyEditorEP18IL6EditorLibrarian
0x00083b38	291	_ZN7L6Event4waitEj
0x00083af2	69	_ZN7L6Event5resetEv
0x00083a9c	86	_ZN7L6Event6signalEv
0x0008397a	119	_ZN7L6EventC1Ev
0x0008397a	119	_ZN7L6EventC2Ev
0x00083a6c	48	_ZN7L6EventD0Ev
0x000839f2	121	_ZN7L6EventD1Ev
0x000839f2	121	_ZN7L6EventD2Ev
0x00083df8	14	_ZN7L6Mutex14getPlatformObjEv
0x00083d70	43	_ZN7L6Mutex4lockEv
0x00083d9c	43	_ZN7L6Mutex6unlockEv
0x00083dc8	48	_ZN7L6Mutex7trylockEv
0x00083c5c	123	_ZN7L6MutexC1Ev
0x00083c5c	123	_ZN7L6MutexC2Ev
0x00083d40	48	_ZN7L6MutexD0Ev
0x00083cd8	104	_ZN7L6MutexD1Ev
0x00083cd8	104	_ZN7L6MutexD2Ev
0x000aeb36	147	_ZN7L6StackIN17L6DevLibIFFReader8CONTINFOEE3popERS1_
0x000aebca	78	_ZN7L6StackIN17L6DevLibIFFReader8CONTINFOEE3topERS1_
0x000aec70	43	_ZN7L6StackIN17L6DevLibIFFReader8CONTINFOEE4NodeC1ERKS1_
0x000aec70	43	_ZN7L6StackIN17L6DevLibIFFReader8CONTINFOEE4NodeC2ERKS1_
0x000aec9c	5	_ZN7L6StackIN17L6DevLibIFFReader8CONTINFOEE4NodeD1Ev
0x000aec9c	5	_ZN7L6StackIN17L6DevLibIFFReader8CONTINFOEE4NodeD2Ev
0x000aeaa2	136	_ZN7L6StackIN17L6DevLibIFFReader8CONTINFOEE4pushERKS1_
0x000aec1e	81	_ZN7L6StackIN17L6DevLibIFFReader8CONTINFOEE5clearEv
0x000ae9f6	50	_ZN7L6StackIN17L6DevLibIFFReader8CONTINFOEEC1Ev
0x000ae9f6	50	_ZN7L6StackIN17L6DevLibIFFReader8CONTINFOEEC2Ev
0x000aea72	48	_ZN7L6StackIN17L6DevLibIFFReader8CONTINFOEED0Ev
0x000aea28	74	_ZN7L6StackIN17L6DevLibIFFReader8CONTINFOEED1Ev
0x000aea28	74	_ZN7L6StackIN17L6DevLibIFFReader8CONTINFOEED2Ev
0x000cc45a	129	_ZN7L6StackIiE3popERi
0x000efcf4	60	_ZN7L6StackIiE3topERi
0x000cc242	25	_ZN7L6StackIiE4NodeC1ERKi
0x000cc242	25	_ZN7L6StackIiE4NodeC2ERKi
0x000cc6d0	5	_ZN7L6StackIiE4NodeD1Ev
0x000cc6d0	5	_ZN7L6StackIiE4NodeD2Ev
0x000efd30	136	_ZN7L6StackIiE4pushERKi
0x000cc1fc	69	_ZN7L6StackIiE5clearEv
0x000efc9a	78	_ZN7L6StackIiEC1ERKS0_
0x000efbee	50	_ZN7L6StackIiEC1Ev
0x000efc9a	78	_ZN7L6StackIiEC2ERKS0_
0x000efbee	50	_ZN7L6StackIiEC2Ev
0x000efc6a	48	_ZN7L6StackIiED0Ev
0x000efc20	74	_ZN7L6StackIiED1Ev
0x000efc20	74	_ZN7L6StackIiED2Ev
0x000cbf92	197	_ZN7L6StackIiEaSERKS0_
0x00070f82	49	_ZN7_JNIEnv11GetMethodIDEP7_jclassPKcS3_
0x0007ca04	42	_ZN7_JNIEnv12IsInstanceOfEP8_jobjectP7_jclass
0x0006c160	35	_ZN7_JNIEnv12NewByteArrayEi
0x00070f02	32	_ZN7_JNIEnv12NewGlobalRefEP8_jobject
0x0006c060	35	_ZN7_JNIEnv12NewStringUTFEPKc
0x0007caee	63	_ZN7_JNIEnv13CallIntMethodEP8_jobjectP10_jmethodIDz
0x0007caae	64	_ZN7_JNIEnv14CallByteMethodEP8_jobjectP10_jmethodIDz
0x00070fb4	57	_ZN7_JNIEnv14CallVoidMethodEP8_jobjectP10_jmethodIDz
0x00070f42	32	_ZN7_JNIEnv14DeleteLocalRefEP8_jobject
0x00070fee	28	_ZN7_JNIEnv14ExceptionCheckEv
0x0006c0d8	35	_ZN7_JNIEnv14GetArrayLengthEP7_jarray
0x00070f62	32	_ZN7_JNIEnv14GetObjectClassEP8_jobject
0x0006c0fc	49	_ZN7_JNIEnv14NewObjectArrayEiP7_jclassP8_jobject
0x0007cb2e	75	_ZN7_JNIEnv15CallFloatMethodEP8_jobjectP10_jmethodIDz
0x00070f22	32	_ZN7_JNIEnv15DeleteGlobalRefEP8_jobject
0x0007ca2e	63	_ZN7_JNIEnv16CallObjectMethodEP8_jobjectP10_jmethodIDz
0x0007ca6e	64	_ZN7_JNIEnv17CallBooleanMethodEP8_jobjectP10_jmethodIDz
0x00070ee8	25	_ZN7_JNIEnv17ExceptionDescribeEv
0x0006c084	42	_ZN7_JNIEnv17GetStringUTFCharsEP8_jstringPh
0x0006c184	56	_ZN7_JNIEnv18GetByteArrayRegionEP11_jbyteArrayiiPa
0x0006c1bc	56	_ZN7_JNIEnv18SetByteArrayRegionEP11_jbyteArrayiiPKa
0x0006c0ae	42	_ZN7_JNIEnv21ReleaseStringUTFCharsEP8_jstringPKc
0x0006c12e	49	_ZN7_JNIEnv21SetObjectArrayElementEP13_jobjectArrayiP8_jobject
0x00070ec0	39	_ZN7_JNIEnv8ThrowNewEP7_jclassPKc
0x0006c040	32	_ZN7_JNIEnv9FindClassEPKc
0x0007c9c8	60	_ZN7_JNIEnv9NewObjectEP7_jclassP10_jmethodIDz
0x0007100a	39	_ZN7_JavaVM19AttachCurrentThreadEPP7_JNIEnvPv
0x00071032	25	_ZN7_JavaVM19DetachCurrentThreadEv
0x00098b6c	5	_ZN8DataInfoD1Ev
0x00098b6c	5	_ZN8DataInfoD2Ev
0x000ad8c4	465	_ZN8InStream6ReadAsEPvjjj
0x000973ee	30	_ZN8InStreamC1Ev
0x000973ee	30	_ZN8InStreamC2Ev
0x00084500	57	_ZN8L6Atomic11decrement64EPVx
0x0008449e	57	_ZN8L6Atomic11increment64EPVx
0x0008453a	28	_ZN8L6Atomic14compareAndSwapEiiPVi
0x00084556	86	_ZN8L6Atomic16compareAndSwap64ExxPVx
0x000844d8	40	_ZN8L6Atomic9decrementEPVi
0x00084478	38	_ZN8L6Atomic9incrementEPVi
0x000b001b	19	_ZN8L6Base6413decodedLengthEj
0x000affc0	91	_ZN8L6Base6413encodedLengthEj
0x000afe4a	374	_ZN8L6Base646decodeEPKcjPhPj
0x000afc0d	573	_ZN8L6Base646encodeEPKhjPcb
0x0006cc44	187	_ZN8L6Buffer11setDataSizeEj
0x0006ce76	147	_ZN8L6Buffer18allocDefaultBufferEv
0x0006cd00	373	_ZN8L6Buffer23expandBufferForDataSizeEj
0x00080a32	55	_ZN8L6Buffer5clearEv
0x0006cb54	157	_ZN8L6Buffer7addDataEPKvj
0x0006ca34	122	_ZN8L6BufferC1EPKvj
0x000717a6	115	_ZN8L6BufferC1ERKS_
0x0006c9d2	98	_ZN8L6BufferC1EjNS_15EXPAND_STRATEGYE
0x0006ca34	122	_ZN8L6BufferC2EPKvj
0x000717a6	115	_ZN8L6BufferC2ERKS_
0x0006c9d2	98	_ZN8L6BufferC2EjNS_15EXPAND_STRATEGYE
0x0006cb24	48	_ZN8L6BufferD0Ev
0x0006caae	117	_ZN8L6BufferD1Ev
0x0006caae	117	_ZN8L6BufferD2Ev
0x0007181a	244	_ZN8L6BufferaSERKS_
0x000888b8	66	_ZN8L6Device10initializeEP16L6PlatformObjectPFbR9L6VariantE
0x00088e5c	221	_ZN8L6Device10matchesObjEP16L6PlatformObject
0x000885d6	10	_ZN8L6Device11startUpdateER8L6Bufferj
0x00089cea	112	_ZN8L6Device12isDeviceAeonEv
0x00088f3a	1538	_ZN8L6Device13getDeviceInfoER9L6Variant
0x00089e82	112	_ZN8L6Device13isDeviceHelixEv
0x0008a01a	389	_ZN8L6Device13unbrickDeviceE12Device_State
0x00088b4c	89	_ZN8L6Device14deviceInstanceEv
0x000885b6	11	_ZN8L6Device14getPlatformObjEv
0x00089d5a	147	_ZN8L6Device14isDeviceAeonFXEv
0x00088e24	55	_ZN8L6Device14setPlatformObjEP16L6PlatformObject
0x00089dee	147	_ZN8L6Device15isDeviceAeonAmpEv
0x000898d0	112	_ZN8L6Device15isDeviceAmplifiEv
0x00089ef2	147	_ZN8L6Device15isDeviceHelixFXEv
0x000885b0	5	_ZN8L6Device15surpriseArrivalEv
0x000885aa	5	_ZN8L6Device15surpriseRemovalEv
0x000885f8	10	_ZN8L6Device16isDeviceWirelessEv
0x000885a0	10	_ZN8L6Device16safeToDisconnectEv
0x00089a68	147	_ZN8L6Device17isDeviceAmplifi30Ev
0x00089940	147	_ZN8L6Device17isDeviceAmplifi75Ev
0x00089c56	147	_ZN8L6Device17isDeviceAmplifiTTEv
0x00088602	10	_ZN8L6Device17isDeviceCompositeEv
0x00089f86	147	_ZN8L6Device17isDeviceHelixRackEv
0x000885c2	10	_ZN8L6Device17refreshDeviceInfoEP16L6PlatformObject
0x000885cc	10	_ZN8L6Device17verifyEnvironmentEv
0x000899d4	147	_ZN8L6Device18isDeviceAmplifi150Ev
0x00088aec	96	_ZN8L6Device18isEnvironmentValidEv
0x0008986c	100	_ZN8L6Device19getDeviceDriverInfoER9L6Variant
0x00088c6e	236	_ZN8L6Device19setupPlatformObjectEP16L6PlatformObject
0x00089afc	346	_ZN8L6Device20isDeviceAmplifiFX100Ev
0x00088dac	119	_ZN8L6Device21destroyPlatformObjectEv
0x0008953c	816	_ZN8L6Device22getDeviceCompositeInfoER9L6Variant
0x00088a88	100	_ZN8L6Device29setupMessageChannelParametersEv
0x0008c67a	12	_ZN8L6Device6isOpenEv
0x0008867e	569	_ZN8L6DeviceC1EP18L6DeviceCenterBase
0x0008867e	569	_ZN8L6DeviceC2EP18L6DeviceCenterBase
0x00088a58	48	_ZN8L6DeviceD0Ev
0x000888fa	350	_ZN8L6DeviceD1Ev
0x000888fa	350	_ZN8L6DeviceD2Ev
0x0007fce2	428	_ZN8L6String10copyBufferEv
0x0007f074	82	_ZN8L6String10lockBufferEv
0x0006c832	325	_ZN8L6String11allocBufferEj
0x0007fb00	481	_ZN8L6String12expandBufferEj
0x000c313c	225	_ZN8L6String12formatStringEPKcz
0x000e1de4	247	_ZN8L6String12setFromCharsEPKcj
0x0007ef86	237	_ZN8L6String12setFromCharsEPKwj
0x0006c744	111	_ZN8L6String13copyUTF8CharsEPcPKcj
0x0006c7b4	126	_ZN8L6String13destroyBufferEv
0x0007f0c6	37	_ZN8L6String13releaseBufferEv
0x000e1edc	122	_ZN8L6String20truncateToByteLengthEj
0x0007f640	96	_ZN8L6String20truncateToCharLengthEj
0x0007f14a	597	_ZN8L6String8setWCharEjw
0x0006c356	266	_ZN8L6StringC1EPKcb
0x0007147c	68	_ZN8L6StringC1ERKS_
0x0006c32e	40	_ZN8L6StringC1Ev
0x0006c356	266	_ZN8L6StringC2EPKcb
0x0007147c	68	_ZN8L6StringC2ERKS_
0x0006c32e	40	_ZN8L6StringC2Ev
0x0006c4aa	48	_ZN8L6StringD0Ev
0x0006c460	74	_ZN8L6StringD1Ev
0x0006c460	74	_ZN8L6StringD2Ev
0x0006c4da	291	_ZN8L6StringaSEPKc
0x0006c5fe	281	_ZN8L6StringaSERKS_
0x0007f566	47	_ZN8L6StringlsEPKc
0x0007f596	47	_ZN8L6StringlsERKS_
0x0007f5c6	122	_ZN8L6StringlsEw
0x0007f3a0	230	_ZN8L6StringpLEPKc
0x0007f486	224	_ZN8L6StringpLERKS_
0x001037d0	121	_ZN9BspRouter10RouterTaskEv
0x00092230	13	_ZN9BspRouter13GetTimerGroupEv
0x00092224	11	_ZN9BspRouter13MessageRouterEv
0x00103880	9	_ZN9BspRouter13TestTimerTaskEv
0x00103780	71	_ZN9BspRouter15AddRoutingEntryEtjiP10MsgChannel
0x00103890	139	_ZN9BspRouter15RouterTimerTaskEv
0x00103950	121	_ZN9BspRouter19RouterTimerCallbackEP6_Timer
0x00103a10	151	_ZN9BspRouter21BindChannelPipeToAddrEP15IMsgChannelPipetjPci
0x00103ab0	9	_ZN9BspRouter25UnbindChannelPipeFromAddrEP15IMsgChannelPipe
0x00103510	624	_ZN9BspRouter4InitEv
0x00103330	354	_ZN9BspRouter7DestroyEv
0x001032d0	83	_ZN9BspRouterC1Et
0x001032d0	83	_ZN9BspRouterC2Et
0x001034d0	56	_ZN9BspRouterD0Ev
0x001034a0	45	_ZN9BspRouterD1Ev
0x001034a0	45	_ZN9BspRouterD2Ev
0x000973e4	10	_ZN9IProgress11IsCancelledEv
0x000a8a16	48	_ZN9IProgress16SetIndeterminateEv
0x00097a86	30	_ZN9IProgressC1Ev
0x00097a86	30	_ZN9IProgressC2Ev
0x0009940c	30	_ZN9IReadableC1Ev
0x0009940c	30	_ZN9IReadableC2Ev
0x0008a9cc	10	_ZN9L6MsgPort10changeModeE9ePortMode
0x0008ad1e	99	_ZN9L6MsgPort11addObserverEP19IDevicePortObserver
0x0008ae76	111	_ZN9L6MsgPort14lockReadAccessEv
0x0008ad82	99	_ZN9L6MsgPort14removeObserverEP19IDevicePortObserver
0x0008a9e0	11	_ZN9L6MsgPort15MaxTransferSizeEv
0x0008af44	153	_ZN9L6MsgPort15lockWriteAccessEv
0x0008ade6	143	_ZN9L6MsgPort16postNotificationERK8L6StringRK9L6Variant
0x0008aee6	93	_ZN9L6MsgPort16unlockReadAccessEv
0x0008a9d6	10	_ZN9L6MsgPort17getUnderlyingPortEv
0x0008afde	93	_ZN9L6MsgPort17unlockWriteAccessEv
0x0008a98e	10	_ZN9L6MsgPort4openEv
0x0008a9a2	10	_ZN9L6MsgPort4readEPvj
0x0008a998	10	_ZN9L6MsgPort5closeEv
0x0008a9b6	10	_ZN9L6MsgPort5writeEPKvj
0x0008a9ac	10	_ZN9L6MsgPort7readAllEPvj
0x0008aa0a	306	_ZN9L6MsgPortC1E9ePortModejii
0x0008aa0a	306	_ZN9L6MsgPortC2E9ePortModejii
0x0008acee	48	_ZN9L6MsgPortD0Ev
0x0008ab3c	433	_ZN9L6MsgPortD1Ev
0x0008ab3c	433	_ZN9L6MsgPortD2Ev
0x00088ba6	54	_ZN9L6USBINFOC1Ev
0x00088ba6	54	_ZN9L6USBINFOC2Ev
0x00088d5a	82	_ZN9L6USBINFOD1Ev
0x00088d5a	82	_ZN9L6USBINFOD2Ev
0x00088bdc	145	_ZN9L6USBINFOaSERKS_
0x00086076	114	_ZN9L6Variant11initAsArrayEv
0x00071bd6	98	_ZN9L6Variant16initAsDictionaryEv
0x00073712	736	_ZN9L6Variant4copyERKS_
0x000af97c	128	_ZN9L6Variant5clearEv
0x00086104	70	_ZN9L6Variant6appendERKS_
0x0006cfae	274	_ZN9L6Variant7destroyEv
0x0006cf48	102	_ZN9L6VariantC1EPKc
0x000b1e6e	23	_ZN9L6VariantC1EPv
0x00071b78	94	_ZN9L6VariantC1ERK12L6DictionaryIS_S_E
0x00071b1a	94	_ZN9L6VariantC1ERK8L6String
0x00071a5a	44	_ZN9L6VariantC1ERKS_
0x00071ac8	34	_ZN9L6VariantC1Eb
0x00071b02	23	_ZN9L6VariantC1Ef
0x00071aea	23	_ZN9L6VariantC1Ei
0x0008605e	23	_ZN9L6VariantC1Ej
0x0006cf0a	24	_ZN9L6VariantC1Ev
0x000e20a2	45	_ZN9L6VariantC1Ey
0x0006cf48	102	_ZN9L6VariantC2EPKc
0x000b1e6e	23	_ZN9L6VariantC2EPv
0x00071b78	94	_ZN9L6VariantC2ERK12L6DictionaryIS_S_E
0x00071b1a	94	_ZN9L6VariantC2ERK8L6String
0x00071a5a	44	_ZN9L6VariantC2ERKS_
0x00071ac8	34	_ZN9L6VariantC2Eb
0x00071b02	23	_ZN9L6VariantC2Ef
0x00071aea	23	_ZN9L6VariantC2Ei
0x0008605e	23	_ZN9L6VariantC2Ej
0x0006cf0a	24	_ZN9L6VariantC2Ev
0x000e20a2	45	_ZN9L6VariantC2Ey
0x0006cf22	37	_ZN9L6VariantD1Ev
0x0006cf22	37	_ZN9L6VariantD2Ev
0x00071a86	66	_ZN9L6VariantaSERKS_
0x00073144	233	_ZN9L6VariantixEPKc
0x00073096	173	_ZN9L6VariantixERKS_
0x000b1e86	205	_ZN9L6VariantixEj
0x000ada96	447	_ZN9OutStream7WriteAsEPKvjjj
0x0011a180	37	_ZN9__gnu_cxx13new_allocatorIN4Json12PathArgumentEE10deallocateEPS2_j
0x00119b54	37	_ZN9__gnu_cxx13new_allocatorIN4Json12PathArgumentEE7destroyEPS2_
0x0011a43c	72	_ZN9__gnu_cxx13new_allocatorIN4Json12PathArgumentEE8allocateEjPKv
0x00118606	98	_ZN9__gnu_cxx13new_allocatorIN4Json12PathArgumentEE9constructEPS2_RKS2_
0x0011a8b4	5	_ZN9__gnu_cxx13new_allocatorIN4Json12PathArgumentEEC1Ev
0x0011a8b4	5	_ZN9__gnu_cxx13new_allocatorIN4Json12PathArgumentEEC2Ev
0x0011a17a	5	_ZN9__gnu_cxx13new_allocatorIN4Json12PathArgumentEED1Ev
0x0011a17a	5	_ZN9__gnu_cxx13new_allocatorIN4Json12PathArgumentEED2Ev
0x00087cd6	37	_ZN9__gnu_cxx13new_allocatorIN4Json6Reader9ErrorInfoEE10deallocateEPS3_j
0x0010fb7e	73	_ZN9__gnu_cxx13new_allocatorIN4Json6Reader9ErrorInfoEE8allocateEjPKv
0x0010e49e	98	_ZN9__gnu_cxx13new_allocatorIN4Json6Reader9ErrorInfoEE9constructEPS3_RKS3_
0x0011053c	5	_ZN9__gnu_cxx13new_allocatorIN4Json6Reader9ErrorInfoEEC1Ev
0x0011053c	5	_ZN9__gnu_cxx13new_allocatorIN4Json6Reader9ErrorInfoEEC2Ev
0x00087b34	5	_ZN9__gnu_cxx13new_allocatorIN4Json6Reader9ErrorInfoEED1Ev
0x00087b34	5	_ZN9__gnu_cxx13new_allocatorIN4Json6Reader9ErrorInfoEED2Ev
0x0009cfce	37	_ZN9__gnu_cxx13new_allocatorIN5L6UUE12UpdateEngine9ImageInfoEE7destroyEPS3_
0x0009d298	98	_ZN9__gnu_cxx13new_allocatorIN5L6UUE12UpdateEngine9ImageInfoEE9constructEPS3_RKS3_
0x0009d328	5	_ZN9__gnu_cxx13new_allocatorIN5L6UUE12UpdateEngine9ImageInfoEEC1Ev
0x0009d328	5	_ZN9__gnu_cxx13new_allocatorIN5L6UUE12UpdateEngine9ImageInfoEEC2Ev
0x0009d194	5	_ZN9__gnu_cxx13new_allocatorIN5L6UUE12UpdateEngine9ImageInfoEED1Ev
0x0009d194	5	_ZN9__gnu_cxx13new_allocatorIN5L6UUE12UpdateEngine9ImageInfoEED2Ev
0x0011a212	37	_ZN9__gnu_cxx13new_allocatorIPKN4Json12PathArgumentEE10deallocateEPS4_j
0x0011993c	5	_ZN9__gnu_cxx13new_allocatorIPKN4Json12PathArgumentEE7destroyEPS4_
0x0011a2fe	66	_ZN9__gnu_cxx13new_allocatorIPKN4Json12PathArgumentEE8allocateEjPKv
0x001182a0	56	_ZN9__gnu_cxx13new_allocatorIPKN4Json12PathArgumentEE9constructEPS4_RKS4_
0x0011a8e6	5	_ZN9__gnu_cxx13new_allocatorIPKN4Json12PathArgumentEEC1Ev
0x0011a8e6	5	_ZN9__gnu_cxx13new_allocatorIPKN4Json12PathArgumentEEC2Ev
0x0011a20c	5	_ZN9__gnu_cxx13new_allocatorIPKN4Json12PathArgumentEED1Ev
0x0011a20c	5	_ZN9__gnu_cxx13new_allocatorIPKN4Json12PathArgumentEED2Ev
0x00087c7c	37	_ZN9__gnu_cxx13new_allocatorIPN4Json5ValueEE10deallocateEPS3_j
0x0010ecf8	5	_ZN9__gnu_cxx13new_allocatorIPN4Json5ValueEE7destroyEPS3_
0x00110760	66	_ZN9__gnu_cxx13new_allocatorIPN4Json5ValueEE8allocateEjPKv
0x0010ed6c	56	_ZN9__gnu_cxx13new_allocatorIPN4Json5ValueEE9constructEPS3_RKS3_
0x0011105e	5	_ZN9__gnu_cxx13new_allocatorIPN4Json5ValueEEC1ERKS4_
0x00110426	5	_ZN9__gnu_cxx13new_allocatorIPN4Json5ValueEEC1Ev
0x0011105e	5	_ZN9__gnu_cxx13new_allocatorIPN4Json5ValueEEC2ERKS4_
0x00110426	5	_ZN9__gnu_cxx13new_allocatorIPN4Json5ValueEEC2Ev
0x00087a6a	5	_ZN9__gnu_cxx13new_allocatorIPN4Json5ValueEED1Ev
0x00087a6a	5	_ZN9__gnu_cxx13new_allocatorIPN4Json5ValueEED2Ev
0x00087bd8	37	_ZN9__gnu_cxx13new_allocatorIPN4Json6Reader9ErrorInfoEE10deallocateEPS4_j
0x00110542	66	_ZN9__gnu_cxx13new_allocatorIPN4Json6Reader9ErrorInfoEE8allocateEjPKv
0x00087d62	5	_ZN9__gnu_cxx13new_allocatorIPN4Json6Reader9ErrorInfoEEC1Ev
0x00087d62	5	_ZN9__gnu_cxx13new_allocatorIPN4Json6Reader9ErrorInfoEEC2Ev
0x00087d2a	5	_ZN9__gnu_cxx13new_allocatorIPN4Json6Reader9ErrorInfoEED1Ev
0x00087d2a	5	_ZN9__gnu_cxx13new_allocatorIPN4Json6Reader9ErrorInfoEED2Ev
0x0009b01e	5	_ZN9__gnu_cxx13new_allocatorIPN5L6UUE12ImageArchive4NodeEE7destroyEPS4_
0x0009c0d4	56	_ZN9__gnu_cxx13new_allocatorIPN5L6UUE12ImageArchive4NodeEE9constructEPS4_RKS4_
0x0009c04a	5	_ZN9__gnu_cxx13new_allocatorIPN5L6UUE12ImageArchive4NodeEEC1Ev
0x0009c04a	5	_ZN9__gnu_cxx13new_allocatorIPN5L6UUE12ImageArchive4NodeEEC2Ev
0x0009b8ec	5	_ZN9__gnu_cxx13new_allocatorIPN5L6UUE12ImageArchive4NodeEED1Ev
0x0009b8ec	5	_ZN9__gnu_cxx13new_allocatorIPN5L6UUE12ImageArchive4NodeEED2Ev
0x0009af12	5	_ZN9__gnu_cxx13new_allocatorIPN5L6UUE12ImageArchive5ImageEE7destroyEPS4_
0x0009c006	56	_ZN9__gnu_cxx13new_allocatorIPN5L6UUE12ImageArchive5ImageEE9constructEPS4_RKS4_
0x0009c03e	5	_ZN9__gnu_cxx13new_allocatorIPN5L6UUE12ImageArchive5ImageEEC1Ev
0x0009c03e	5	_ZN9__gnu_cxx13new_allocatorIPN5L6UUE12ImageArchive5ImageEEC2Ev
0x0009b86c	5	_ZN9__gnu_cxx13new_allocatorIPN5L6UUE12ImageArchive5ImageEED1Ev
0x0009b86c	5	_ZN9__gnu_cxx13new_allocatorIPN5L6UUE12ImageArchive5ImageEED2Ev
0x00087b0e	37	_ZN9__gnu_cxx13new_allocatorIPPN4Json5ValueEE10deallocateEPS4_j
0x0011042c	66	_ZN9__gnu_cxx13new_allocatorIPPN4Json5ValueEE8allocateEjPKv
0x00087d5c	5	_ZN9__gnu_cxx13new_allocatorIPPN4Json5ValueEEC1Ev
0x00087d5c	5	_ZN9__gnu_cxx13new_allocatorIPPN4Json5ValueEEC2Ev
0x00087cd0	5	_ZN9__gnu_cxx13new_allocatorIPPN4Json5ValueEED1Ev
0x00087cd0	5	_ZN9__gnu_cxx13new_allocatorIPPN4Json5ValueEED2Ev
0x00087a04	37	_ZN9__gnu_cxx13new_allocatorISsE10deallocateEPSsj
0x0010a89e	37	_ZN9__gnu_cxx13new_allocatorISsE7destroyEPSs
0x0010a8c4	66	_ZN9__gnu_cxx13new_allocatorISsE8allocateEjPKv
0x0010a30c	98	_ZN9__gnu_cxx13new_allocatorISsE9constructEPSsRKSs
0x0011a854	5	_ZN9__gnu_cxx13new_allocatorISsEC1ERKS1_
0x0010aa54	5	_ZN9__gnu_cxx13new_allocatorISsEC1Ev
0x0011a854	5	_ZN9__gnu_cxx13new_allocatorISsEC2ERKS1_
0x0010aa54	5	_ZN9__gnu_cxx13new_allocatorISsEC2Ev
0x000879fe	5	_ZN9__gnu_cxx13new_allocatorISsED1Ev
0x000879fe	5	_ZN9__gnu_cxx13new_allocatorISsED2Ev
0x0009d19a	37	_ZN9__gnu_cxx13new_allocatorISt10_List_nodeIN5L6UUE12UpdateEngine9ImageInfoEEE10deallocateEPS5_j
0x0009d32e	73	_ZN9__gnu_cxx13new_allocatorISt10_List_nodeIN5L6UUE12UpdateEngine9ImageInfoEEE8allocateEjPKv
0x0009d322	5	_ZN9__gnu_cxx13new_allocatorISt10_List_nodeIN5L6UUE12UpdateEngine9ImageInfoEEEC1Ev
0x0009d322	5	_ZN9__gnu_cxx13new_allocatorISt10_List_nodeIN5L6UUE12UpdateEngine9ImageInfoEEEC2Ev
0x0009cf60	5	_ZN9__gnu_cxx13new_allocatorISt10_List_nodeIN5L6UUE12UpdateEngine9ImageInfoEEED1Ev
0x0009cf60	5	_ZN9__gnu_cxx13new_allocatorISt10_List_nodeIN5L6UUE12UpdateEngine9ImageInfoEEED2Ev
0x0009b8f2	37	_ZN9__gnu_cxx13new_allocatorISt10_List_nodeIPN5L6UUE12ImageArchive4NodeEEE10deallocateEPS6_j
0x0009c2fa	72	_ZN9__gnu_cxx13new_allocatorISt10_List_nodeIPN5L6UUE12ImageArchive4NodeEEE8allocateEjPKv
0x0009c044	5	_ZN9__gnu_cxx13new_allocatorISt10_List_nodeIPN5L6UUE12ImageArchive4NodeEEEC1Ev
0x0009c044	5	_ZN9__gnu_cxx13new_allocatorISt10_List_nodeIPN5L6UUE12ImageArchive4NodeEEEC2Ev
0x0009afb0	5	_ZN9__gnu_cxx13new_allocatorISt10_List_nodeIPN5L6UUE12ImageArchive4NodeEEED1Ev
0x0009afb0	5	_ZN9__gnu_cxx13new_allocatorISt10_List_nodeIPN5L6UUE12ImageArchive4NodeEEED2Ev
0x0009b872	37	_ZN9__gnu_cxx13new_allocatorISt10_List_nodeIPN5L6UUE12ImageArchive5ImageEEE10deallocateEPS6_j
0x0009c2ac	72	_ZN9__gnu_cxx13new_allocatorISt10_List_nodeIPN5L6UUE12ImageArchive5ImageEEE8allocateEjPKv
0x0009c2f4	5	_ZN9__gnu_cxx13new_allocatorISt10_List_nodeIPN5L6UUE12ImageArchive5ImageEEEC1Ev
0x0009c2f4	5	_ZN9__gnu_cxx13new_allocatorISt10_List_nodeIPN5L6UUE12ImageArchive5ImageEEEC2Ev
0x0009aea4	5	_ZN9__gnu_cxx13new_allocatorISt10_List_nodeIPN5L6UUE12ImageArchive5ImageEEED1Ev
0x0009aea4	5	_ZN9__gnu_cxx13new_allocatorISt10_List_nodeIPN5L6UUE12ImageArchive5ImageEEED2Ev
0x0011a4f0	37	_ZN9__gnu_cxx13new_allocatorISt13_Rb_tree_nodeISt4pairIKN4Json5Value8CZStringES4_EEE10deallocateEPS8_j
0x0011ab4c	73	_ZN9__gnu_cxx13new_allocatorISt13_Rb_tree_nodeISt4pairIKN4Json5Value8CZStringES4_EEE8allocateEjPKv
0x0011a4be	5	_ZN9__gnu_cxx13new_allocatorISt13_Rb_tree_nodeISt4pairIKN4Json5Value8CZStringES4_EEEC1ERKS9_
0x0011a4b8	5	_ZN9__gnu_cxx13new_allocatorISt13_Rb_tree_nodeISt4pairIKN4Json5Value8CZStringES4_EEEC1Ev
0x0011a4be	5	_ZN9__gnu_cxx13new_allocatorISt13_Rb_tree_nodeISt4pairIKN4Json5Value8CZStringES4_EEEC2ERKS9_
0x0011a4b8	5	_ZN9__gnu_cxx13new_allocatorISt13_Rb_tree_nodeISt4pairIKN4Json5Value8CZStringES4_EEEC2Ev
0x00118cc8	5	_ZN9__gnu_cxx13new_allocatorISt13_Rb_tree_nodeISt4pairIKN4Json5Value8CZStringES4_EEED1Ev
0x00118cc8	5	_ZN9__gnu_cxx13new_allocatorISt13_Rb_tree_nodeISt4pairIKN4Json5Value8CZStringES4_EEED2Ev
0x000a858c	37	_ZN9__gnu_cxx13new_allocatorISt13_Rb_tree_nodeISt4pairIKN5L6UUE12ConstraintIDENS3_3AnyEEEE10deallocateEPS8_j
0x000a8782	79	_ZN9__gnu_cxx13new_allocatorISt13_Rb_tree_nodeISt4pairIKN5L6UUE12ConstraintIDENS3_3AnyEEEE8allocateEjPKv
0x000ad56a	5	_ZN9__gnu_cxx13new_allocatorISt13_Rb_tree_nodeISt4pairIKN5L6UUE12ConstraintIDENS3_3AnyEEEEC1Ev
0x000ad56a	5	_ZN9__gnu_cxx13new_allocatorISt13_Rb_tree_nodeISt4pairIKN5L6UUE12ConstraintIDENS3_3AnyEEEEC2Ev
0x000ac560	5	_ZN9__gnu_cxx13new_allocatorISt13_Rb_tree_nodeISt4pairIKN5L6UUE12ConstraintIDENS3_3AnyEEEED1Ev
0x000ac560	5	_ZN9__gnu_cxx13new_allocatorISt13_Rb_tree_nodeISt4pairIKN5L6UUE12ConstraintIDENS3_3AnyEEEED2Ev
0x000a05c2	37	_ZN9__gnu_cxx13new_allocatorISt13_Rb_tree_nodeISt4pairIKN5L6UUE13UpdateCommandEiEEE10deallocateEPS7_j
0x000a080a	72	_ZN9__gnu_cxx13new_allocatorISt13_Rb_tree_nodeISt4pairIKN5L6UUE13UpdateCommandEiEEE8allocateEjPKv
0x000a0588	5	_ZN9__gnu_cxx13new_allocatorISt13_Rb_tree_nodeISt4pairIKN5L6UUE13UpdateCommandEiEEEC1Ev
0x000a0588	5	_ZN9__gnu_cxx13new_allocatorISt13_Rb_tree_nodeISt4pairIKN5L6UUE13UpdateCommandEiEEEC2Ev
0x0009f8a0	5	_ZN9__gnu_cxx13new_allocatorISt13_Rb_tree_nodeISt4pairIKN5L6UUE13UpdateCommandEiEEED1Ev
0x0009f8a0	5	_ZN9__gnu_cxx13new_allocatorISt13_Rb_tree_nodeISt4pairIKN5L6UUE13UpdateCommandEiEEED2Ev
0x000a84ae	37	_ZN9__gnu_cxx13new_allocatorISt13_Rb_tree_nodeISt4pairIKN5L6UUE13UpdateParamIDENS3_3AnyEEEE10deallocateEPS8_j
0x000a872c	79	_ZN9__gnu_cxx13new_allocatorISt13_Rb_tree_nodeISt4pairIKN5L6UUE13UpdateParamIDENS3_3AnyEEEE8allocateEjPKv
0x000ad564	5	_ZN9__gnu_cxx13new_allocatorISt13_Rb_tree_nodeISt4pairIKN5L6UUE13UpdateParamIDENS3_3AnyEEEEC1Ev
0x000ad564	5	_ZN9__gnu_cxx13new_allocatorISt13_Rb_tree_nodeISt4pairIKN5L6UUE13UpdateParamIDENS3_3AnyEEEEC2Ev
0x000ac4dc	5	_ZN9__gnu_cxx13new_allocatorISt13_Rb_tree_nodeISt4pairIKN5L6UUE13UpdateParamIDENS3_3AnyEEEED1Ev
0x000ac4dc	5	_ZN9__gnu_cxx13new_allocatorISt13_Rb_tree_nodeISt4pairIKN5L6UUE13UpdateParamIDENS3_3AnyEEEED2Ev
0x000a8218	37	_ZN9__gnu_cxx13new_allocatorISt13_Rb_tree_nodeISt4pairIKN5L6UUE8DevCapIDEbEEE10deallocateEPS7_j
0x000a8632	72	_ZN9__gnu_cxx13new_allocatorISt13_Rb_tree_nodeISt4pairIKN5L6UUE8DevCapIDEbEEE8allocateEjPKv
0x000ad54e	5	_ZN9__gnu_cxx13new_allocatorISt13_Rb_tree_nodeISt4pairIKN5L6UUE8DevCapIDEbEEEC1Ev
0x000ad54e	5	_ZN9__gnu_cxx13new_allocatorISt13_Rb_tree_nodeISt4pairIKN5L6UUE8DevCapIDEbEEEC2Ev
0x000ac2fa	5	_ZN9__gnu_cxx13new_allocatorISt13_Rb_tree_nodeISt4pairIKN5L6UUE8DevCapIDEbEEED1Ev
0x000ac2fa	5	_ZN9__gnu_cxx13new_allocatorISt13_Rb_tree_nodeISt4pairIKN5L6UUE8DevCapIDEbEEED2Ev
0x000a82f2	37	_ZN9__gnu_cxx13new_allocatorISt13_Rb_tree_nodeISt4pairIKN5L6UUE9DevPropIDENS3_3AnyEEEE10deallocateEPS8_j
0x000a8680	79	_ZN9__gnu_cxx13new_allocatorISt13_Rb_tree_nodeISt4pairIKN5L6UUE9DevPropIDENS3_3AnyEEEE8allocateEjPKv
0x000ad554	5	_ZN9__gnu_cxx13new_allocatorISt13_Rb_tree_nodeISt4pairIKN5L6UUE9DevPropIDENS3_3AnyEEEEC1Ev
0x000ad554	5	_ZN9__gnu_cxx13new_allocatorISt13_Rb_tree_nodeISt4pairIKN5L6UUE9DevPropIDENS3_3AnyEEEEC2Ev
0x000ac37e	5	_ZN9__gnu_cxx13new_allocatorISt13_Rb_tree_nodeISt4pairIKN5L6UUE9DevPropIDENS3_3AnyEEEED1Ev
0x000ac37e	5	_ZN9__gnu_cxx13new_allocatorISt13_Rb_tree_nodeISt4pairIKN5L6UUE9DevPropIDENS3_3AnyEEEED2Ev
0x000a83d0	37	_ZN9__gnu_cxx13new_allocatorISt13_Rb_tree_nodeISt4pairIKN5L6UUE9ImgMetaIDENS3_3AnyEEEE10deallocateEPS8_j
0x000a86d6	79	_ZN9__gnu_cxx13new_allocatorISt13_Rb_tree_nodeISt4pairIKN5L6UUE9ImgMetaIDENS3_3AnyEEEE8allocateEjPKv
0x000ad7e6	5	_ZN9__gnu_cxx13new_allocatorISt13_Rb_tree_nodeISt4pairIKN5L6UUE9ImgMetaIDENS3_3AnyEEEEC1ERKS9_
0x000ad570	5	_ZN9__gnu_cxx13new_allocatorISt13_Rb_tree_nodeISt4pairIKN5L6UUE9ImgMetaIDENS3_3AnyEEEEC1Ev
0x000ad7e6	5	_ZN9__gnu_cxx13new_allocatorISt13_Rb_tree_nodeISt4pairIKN5L6UUE9ImgMetaIDENS3_3AnyEEEEC2ERKS9_
0x000ad570	5	_ZN9__gnu_cxx13new_allocatorISt13_Rb_tree_nodeISt4pairIKN5L6UUE9ImgMetaIDENS3_3AnyEEEEC2Ev
0x000ac5e4	5	_ZN9__gnu_cxx13new_allocatorISt13_Rb_tree_nodeISt4pairIKN5L6UUE9ImgMetaIDENS3_3AnyEEEED1Ev
0x000ac5e4	5	_ZN9__gnu_cxx13new_allocatorISt13_Rb_tree_nodeISt4pairIKN5L6UUE9ImgMetaIDENS3_3AnyEEEED2Ev
0x000ad528	37	_ZN9__gnu_cxx13new_allocatorISt13_Rb_tree_nodeISt4pairIKjN5L6UUE9ImageInfoEEEE10deallocateEPS7_j
0x000ad7ec	66	_ZN9__gnu_cxx13new_allocatorISt13_Rb_tree_nodeISt4pairIKjN5L6UUE9ImageInfoEEEE8allocateEjPKv
0x000ad4ee	5	_ZN9__gnu_cxx13new_allocatorISt13_Rb_tree_nodeISt4pairIKjN5L6UUE9ImageInfoEEEEC1Ev
0x000ad4ee	5	_ZN9__gnu_cxx13new_allocatorISt13_Rb_tree_nodeISt4pairIKjN5L6UUE9ImageInfoEEEEC2Ev
0x000ac1dc	5	_ZN9__gnu_cxx13new_allocatorISt13_Rb_tree_nodeISt4pairIKjN5L6UUE9ImageInfoEEEED1Ev
0x000ac1dc	5	_ZN9__gnu_cxx13new_allocatorISt13_Rb_tree_nodeISt4pairIKjN5L6UUE9ImageInfoEEEED2Ev
0x0009c280	37	_ZN9__gnu_cxx13new_allocatorISt13_Rb_tree_nodeISt4pairIKjjEEE10deallocateEPS5_j
0x0009c3de	72	_ZN9__gnu_cxx13new_allocatorISt13_Rb_tree_nodeISt4pairIKjjEEE8allocateEjPKv
0x0009d750	5	_ZN9__gnu_cxx13new_allocatorISt13_Rb_tree_nodeISt4pairIKjjEEEC1ERKS6_
0x0009c2a6	5	_ZN9__gnu_cxx13new_allocatorISt13_Rb_tree_nodeISt4pairIKjjEEEC1Ev
0x0009d750	5	_ZN9__gnu_cxx13new_allocatorISt13_Rb_tree_nodeISt4pairIKjjEEEC2ERKS6_
0x0009c2a6	5	_ZN9__gnu_cxx13new_allocatorISt13_Rb_tree_nodeISt4pairIKjjEEEC2Ev
0x0009b784	5	_ZN9__gnu_cxx13new_allocatorISt13_Rb_tree_nodeISt4pairIKjjEEED1Ev
0x0009b784	5	_ZN9__gnu_cxx13new_allocatorISt13_Rb_tree_nodeISt4pairIKjjEEED2Ev
0x00119ccc	37	_ZN9__gnu_cxx13new_allocatorISt4pairIKN4Json5Value8CZStringES3_EE7destroyEPS6_
0x0011a7f2	98	_ZN9__gnu_cxx13new_allocatorISt4pairIKN4Json5Value8CZStringES3_EE9constructEPS6_RKS6_
0x0011aa40	5	_ZN9__gnu_cxx13new_allocatorISt4pairIKN4Json5Value8CZStringES3_EEC1Ev
0x0011aa40	5	_ZN9__gnu_cxx13new_allocatorISt4pairIKN4Json5Value8CZStringES3_EEC2Ev
0x0011a4ea	5	_ZN9__gnu_cxx13new_allocatorISt4pairIKN4Json5Value8CZStringES3_EED1Ev
0x0011a4ea	5	_ZN9__gnu_cxx13new_allocatorISt4pairIKN4Json5Value8CZStringES3_EED2Ev
0x000a808a	37	_ZN9__gnu_cxx13new_allocatorISt4pairIKN5L6UUE12ConstraintIDENS2_3AnyEEE7destroyEPS6_
0x000a85e8	68	_ZN9__gnu_cxx13new_allocatorISt4pairIKN5L6UUE12ConstraintIDENS2_3AnyEEE9constructEPS6_RKS6_
0x000a877c	5	_ZN9__gnu_cxx13new_allocatorISt4pairIKN5L6UUE12ConstraintIDENS2_3AnyEEEC1Ev
0x000a877c	5	_ZN9__gnu_cxx13new_allocatorISt4pairIKN5L6UUE12ConstraintIDENS2_3AnyEEEC2Ev
0x000a8586	5	_ZN9__gnu_cxx13new_allocatorISt4pairIKN5L6UUE12ConstraintIDENS2_3AnyEEED1Ev
0x000a8586	5	_ZN9__gnu_cxx13new_allocatorISt4pairIKN5L6UUE12ConstraintIDENS2_3AnyEEED2Ev
0x000a007e	37	_ZN9__gnu_cxx13new_allocatorISt4pairIKN5L6UUE13UpdateCommandEiEE7destroyEPS5_
0x000a07ca	64	_ZN9__gnu_cxx13new_allocatorISt4pairIKN5L6UUE13UpdateCommandEiEE9constructEPS5_RKS5_
0x000a0784	5	_ZN9__gnu_cxx13new_allocatorISt4pairIKN5L6UUE13UpdateCommandEiEEC1Ev
0x000a0784	5	_ZN9__gnu_cxx13new_allocatorISt4pairIKN5L6UUE13UpdateCommandEiEEC2Ev
0x000a05bc	5	_ZN9__gnu_cxx13new_allocatorISt4pairIKN5L6UUE13UpdateCommandEiEED1Ev
0x000a05bc	5	_ZN9__gnu_cxx13new_allocatorISt4pairIKN5L6UUE13UpdateCommandEiEED2Ev
0x000a7e8a	37	_ZN9__gnu_cxx13new_allocatorISt4pairIKN5L6UUE13UpdateParamIDENS2_3AnyEEE7destroyEPS6_
0x000a8514	68	_ZN9__gnu_cxx13new_allocatorISt4pairIKN5L6UUE13UpdateParamIDENS2_3AnyEEE9constructEPS6_RKS6_
0x000a8726	5	_ZN9__gnu_cxx13new_allocatorISt4pairIKN5L6UUE13UpdateParamIDENS2_3AnyEEEC1Ev
0x000a8726	5	_ZN9__gnu_cxx13new_allocatorISt4pairIKN5L6UUE13UpdateParamIDENS2_3AnyEEEC2Ev
0x000a84a8	5	_ZN9__gnu_cxx13new_allocatorISt4pairIKN5L6UUE13UpdateParamIDENS2_3AnyEEED1Ev
0x000a84a8	5	_ZN9__gnu_cxx13new_allocatorISt4pairIKN5L6UUE13UpdateParamIDENS2_3AnyEEED2Ev
0x000a788a	37	_ZN9__gnu_cxx13new_allocatorISt4pairIKN5L6UUE8DevCapIDEbEE7destroyEPS5_
0x000a827e	64	_ZN9__gnu_cxx13new_allocatorISt4pairIKN5L6UUE8DevCapIDEbEE9constructEPS5_RKS5_
0x000a862c	5	_ZN9__gnu_cxx13new_allocatorISt4pairIKN5L6UUE8DevCapIDEbEEC1Ev
0x000a862c	5	_ZN9__gnu_cxx13new_allocatorISt4pairIKN5L6UUE8DevCapIDEbEEC2Ev
0x000a8212	5	_ZN9__gnu_cxx13new_allocatorISt4pairIKN5L6UUE8DevCapIDEbEED1Ev
0x000a8212	5	_ZN9__gnu_cxx13new_allocatorISt4pairIKN5L6UUE8DevCapIDEbEED2Ev
0x000a7a8a	37	_ZN9__gnu_cxx13new_allocatorISt4pairIKN5L6UUE9DevPropIDENS2_3AnyEEE7destroyEPS6_
0x000a8358	68	_ZN9__gnu_cxx13new_allocatorISt4pairIKN5L6UUE9DevPropIDENS2_3AnyEEE9constructEPS6_RKS6_
0x000a867a	5	_ZN9__gnu_cxx13new_allocatorISt4pairIKN5L6UUE9DevPropIDENS2_3AnyEEEC1Ev
0x000a867a	5	_ZN9__gnu_cxx13new_allocatorISt4pairIKN5L6UUE9DevPropIDENS2_3AnyEEEC2Ev
0x000a82ec	5	_ZN9__gnu_cxx13new_allocatorISt4pairIKN5L6UUE9DevPropIDENS2_3AnyEEED1Ev
0x000a82ec	5	_ZN9__gnu_cxx13new_allocatorISt4pairIKN5L6UUE9DevPropIDENS2_3AnyEEED2Ev
0x000a7c8a	37	_ZN9__gnu_cxx13new_allocatorISt4pairIKN5L6UUE9ImgMetaIDENS2_3AnyEEE7destroyEPS6_
0x000a8436	68	_ZN9__gnu_cxx13new_allocatorISt4pairIKN5L6UUE9ImgMetaIDENS2_3AnyEEE9constructEPS6_RKS6_
0x000a86d0	5	_ZN9__gnu_cxx13new_allocatorISt4pairIKN5L6UUE9ImgMetaIDENS2_3AnyEEEC1Ev
0x000a86d0	5	_ZN9__gnu_cxx13new_allocatorISt4pairIKN5L6UUE9ImgMetaIDENS2_3AnyEEEC2Ev
0x000a83ca	5	_ZN9__gnu_cxx13new_allocatorISt4pairIKN5L6UUE9ImgMetaIDENS2_3AnyEEED1Ev
0x000a83ca	5	_ZN9__gnu_cxx13new_allocatorISt4pairIKN5L6UUE9ImgMetaIDENS2_3AnyEEED2Ev
0x000acdca	37	_ZN9__gnu_cxx13new_allocatorISt4pairIKjN5L6UUE9ImageInfoEEE7destroyEPS5_
0x000ad784	98	_ZN9__gnu_cxx13new_allocatorISt4pairIKjN5L6UUE9ImageInfoEEE9constructEPS5_RKS5_
0x000ad6e0	5	_ZN9__gnu_cxx13new_allocatorISt4pairIKjN5L6UUE9ImageInfoEEEC1Ev
0x000ad6e0	5	_ZN9__gnu_cxx13new_allocatorISt4pairIKjN5L6UUE9ImageInfoEEEC2Ev
0x000ad522	5	_ZN9__gnu_cxx13new_allocatorISt4pairIKjN5L6UUE9ImageInfoEEED1Ev
0x000ad522	5	_ZN9__gnu_cxx13new_allocatorISt4pairIKjN5L6UUE9ImageInfoEEED2Ev
0x0009bef6	37	_ZN9__gnu_cxx13new_allocatorISt4pairIKjjEE7destroyEPS3_
0x0009c384	64	_ZN9__gnu_cxx13new_allocatorISt4pairIKjjEE9constructEPS3_RKS3_
0x0009c3c4	5	_ZN9__gnu_cxx13new_allocatorISt4pairIKjjEEC1Ev
0x0009c3c4	5	_ZN9__gnu_cxx13new_allocatorISt4pairIKjjEEC2Ev
0x0009c27a	5	_ZN9__gnu_cxx13new_allocatorISt4pairIKjjEED1Ev
0x0009c27a	5	_ZN9__gnu_cxx13new_allocatorISt4pairIKjjEED2Ev
0x001107ac	12	_ZN9__gnu_cxx17__is_null_pointerIKcEEbPT_
0x001189e6	15	_ZN9__gnu_cxx17__normal_iteratorIPKN4Json12PathArgumentESt6vectorIS2_SaIS2_EEEC1ERKS4_
0x001189e6	15	_ZN9__gnu_cxx17__normal_iteratorIPKN4Json12PathArgumentESt6vectorIS2_SaIS2_EEEC2ERKS4_
0x00117610	21	_ZN9__gnu_cxx17__normal_iteratorIPKN4Json12PathArgumentESt6vectorIS2_SaIS2_EEEppEv
0x001185b2	15	_ZN9__gnu_cxx17__normal_iteratorIPKPKN4Json12PathArgumentESt6vectorIS4_SaIS4_EEEC1ERKS6_
0x001185b2	15	_ZN9__gnu_cxx17__normal_iteratorIPKPKN4Json12PathArgumentESt6vectorIS4_SaIS4_EEEC2ERKS6_
0x0010a692	15	_ZN9__gnu_cxx17__normal_iteratorIPKSsSt6vectorISsSaISsEEEC1ERKS2_
0x0010a692	15	_ZN9__gnu_cxx17__normal_iteratorIPKSsSt6vectorISsSaISsEEEC2ERKS2_
0x0011a894	21	_ZN9__gnu_cxx17__normal_iteratorIPKSsSt6vectorISsSaISsEEEppEv
0x00119b7a	15	_ZN9__gnu_cxx17__normal_iteratorIPN4Json12PathArgumentESt6vectorIS2_SaIS2_EEEC1ERKS3_
0x00119b7a	15	_ZN9__gnu_cxx17__normal_iteratorIPN4Json12PathArgumentESt6vectorIS2_SaIS2_EEEC2ERKS3_
0x00119942	15	_ZN9__gnu_cxx17__normal_iteratorIPPKN4Json12PathArgumentESt6vectorIS4_SaIS4_EEEC1ERKS5_
0x00119942	15	_ZN9__gnu_cxx17__normal_iteratorIPPKN4Json12PathArgumentESt6vectorIS4_SaIS4_EEEC2ERKS5_
0x000876a2	15	_ZN9__gnu_cxx17__normal_iteratorIPSsSt6vectorISsSaISsEEEC1ERKS1_
0x000876a2	15	_ZN9__gnu_cxx17__normal_iteratorIPSsSt6vectorISsSaISsEEEC2ERKS1_
0x000872b4	21	_ZN9__gnu_cxx17__normal_iteratorIPSsSt6vectorISsSaISsEEEppEv
0x00170e50	545	_ZN9__gnu_cxx27__verbose_terminate_handlerEv
0x0011751a	59	_ZN9__gnu_cxxeqIPKPKN4Json12PathArgumentESt6vectorIS4_SaIS4_EEEEbRKNS_17__normal_iteratorIT_T0_EESF_
0x0010a1a9	59	_ZN9__gnu_cxxeqIPKSsSt6vectorISsSaISsEEEEbRKNS_17__normal_iteratorIT_T0_EESB_
0x00109e42	59	_ZN9__gnu_cxxeqIPSsSt6vectorISsSaISsEEEEbRKNS_17__normal_iteratorIT_T0_EESA_
0x00119a91	71	_ZN9__gnu_cxxmiIPN4Json12PathArgumentESt6vectorIS2_SaIS2_EEEENS_17__normal_iteratorIT_T0_E15difference_typeERKSA_SD_
0x0011987f	65	_ZN9__gnu_cxxmiIPPKN4Json12PathArgumentESt6vectorIS4_SaIS4_EEEENS_17__normal_iteratorIT_T0_E15difference_typeERKSC_SF_
0x0010a823	65	_ZN9__gnu_cxxmiIPSsSt6vectorISsSaISsEEEENS_17__normal_iteratorIT_T0_E15difference_typeERKS8_SB_
0x001175d4	59	_ZN9__gnu_cxxneIPKN4Json12PathArgumentESt6vectorIS2_SaIS2_EEEEbRKNS_17__normal_iteratorIT_T0_EESD_
0x0011a859	59	_ZN9__gnu_cxxneIPKSsSt6vectorISsSaISsEEEEbRKNS_17__normal_iteratorIT_T0_EESB_
0x00087278	59	_ZN9__gnu_cxxneIPSsSt6vectorISsSaISsEEEEbRKNS_17__normal_iteratorIT_T0_EESA_
0x0009cce0	10	_ZNK10BufferBaseIhh11Alloc_BasicE6GetPtrEv
0x000a199c	10	_ZNK10BufferBaseIhv11Alloc_BasicE6GetPtrEv
0x000a0882	11	_ZNK10ElemBuffer6ElemSzEv
0x000a088e	11	_ZNK10ElemBuffer7NumElemEv
0x0016a970	136	_ZNK10__cxxabiv117__class_type_info10__do_catchEPKSt9type_infoPPvj
0x0016a8f0	123	_ZNK10__cxxabiv117__class_type_info11__do_upcastEPKS0_PKvRNS0_15__upcast_resultE
0x0016a7f0	106	_ZNK10__cxxabiv117__class_type_info11__do_upcastEPKS0_PPv
0x0016aa00	177	_ZNK10__cxxabiv117__class_type_info12__do_dyncastEiNS0_10__sub_kindEPKS0_PKvS3_S5_RNS0_16__dyncast_resultE
0x0016a860	19	_ZNK10__cxxabiv117__class_type_info20__do_find_public_srcEiPKvPKS0_S2_
0x00170d70	223	_ZNK10__cxxabiv117__pbase_type_info10__do_catchEPKSt9type_infoPPvj
0x0016c790	12	_ZNK10__cxxabiv119__pointer_type_info14__is_pointer_pEv
0x0016c810	157	_ZNK10__cxxabiv119__pointer_type_info15__pointer_catchEPKNS_17__pbase_type_infoEPPvj
0x0016c960	128	_ZNK10__cxxabiv120__si_class_type_info11__do_upcastEPKNS_17__class_type_infoEPKvRNS1_15__upcast_resultE
0x0016c9e0	334	_ZNK10__cxxabiv120__si_class_type_info12__do_dyncastEiNS_17__class_type_info10__sub_kindEPKS1_PKvS4_S6_RNS1_16__dyncast_resultE
0x0016cb30	196	_ZNK10__cxxabiv120__si_class_type_info20__do_find_public_srcEiPKvPKNS_17__class_type_infoES2_
0x0016d3b0	546	_ZNK10__cxxabiv121__vmi_class_type_info11__do_upcastEPKNS_17__class_type_infoEPKvRNS1_15__upcast_resultE
0x0016cd40	1643	_ZNK10__cxxabiv121__vmi_class_type_info12__do_dyncastEiNS_17__class_type_info10__sub_kindEPKS1_PKvS4_S6_RNS1_16__dyncast_resultE
0x0016d5e0	226	_ZNK10__cxxabiv121__vmi_class_type_info20__do_find_public_srcEiPKvPKNS_17__class_type_infoES2_
0x000ef9e8	237	_ZNK11L6A36Preset13IsStereoGroupEPKc
0x000ea2de	170	_ZNK11L6A36Preset13SerializeSlotEPK11SymbolTableR21L6SPePresetSerializerPKc
0x000e51ba	152	_ZNK11L6A36Preset13WriteToDeviceEPvR8L6Buffer
0x000e5db4	353	_ZNK11L6A36Preset15WriteFXToDeviceEPvR8L6Bufferi
0x000e3eca	10	_ZNK11L6A36Preset16ParamToDeviceMsgERK9L6VariantS2_R8L6Buffer
0x000e3d7e	331	_ZNK11L6A36Preset17DeviceDataEqualToEPvRKS_
0x000ef95e	138	_ZNK11L6A36Preset17IsValidParamGroupEPKc
0x000ea388	248	_ZNK11L6A36Preset17ParamToAssetStateEPK11SymbolTablePKcRK9L6VariantP19StateValueListEntry
0x000e903e	4768	_ZNK11L6A36Preset17SerializeMetaDataEPK11SymbolTableR21L6SPePresetSerializerj
0x000e5f86	307	_ZNK11L6A36Preset18DebugWriteToDeviceEPvR8L6Buffer
0x000e5f16	112	_ZNK11L6A36Preset18WriteModelToDeviceEPvR8L6BufferPKc
0x000ec064	4665	_ZNK11L6A36Preset19SerializeSlotParamsEPK11SymbolTableR21L6SPePresetSerializerPKc
0x000ee30e	1095	_ZNK11L6A36Preset22GetParamWithValidationERK8L6StringS2_R9L6Variant
0x000ede4e	468	_ZNK11L6A36Preset23SerializeParameterPSKeyER21L6SPePresetSerializerj
0x000ed29e	2992	_ZNK11L6A36Preset25SerializeGuitarProcParamsEPK11SymbolTableR21L6SPePresetSerializerPKc
0x000ea480	7060	_ZNK11L6A36Preset25SerializeToDeviceForGroupEPK11SymbolTableR8L6BufferPKc
0x000ee022	747	_ZNK11L6A36Preset30SerializeFootswitchAssignmentsEPK11SymbolTableR21L6SPePresetSerializer
0x000c3466	202	_ZNK11L6A36Preset8GetParamERK9L6VariantS2_RS0_
0x000e373e	81	_ZNK11L6A36Preset9DuplicateEv
0x000b5f0a	140	_ZNK11L6HashTableI8L6StringP6L6ListIN25L6EdLibNotificationCenter8ObserverEEE3getERKS0_RS5_
0x000b48aa	140	_ZNK11L6HashTableI8L6StringPN16L6EdLibModelDefs8ModelDefEE3getERKS0_RS3_
0x000b41f8	140	_ZNK11L6HashTableI8L6StringPN16L6EdLibModelDefs8ParamDefEE3getERKS0_RS3_
0x000bd040	140	_ZNK11L6HashTableI9L6VariantPN17L6EdLibParamGroup5PARAMEE3getERKS0_RS3_
0x000c18e6	10	_ZNK11SymbolTable11GetRawTableEv
0x000c18da	11	_ZNK11SymbolTable12GetTableSizeEv
0x000c2b70	217	_ZNK11SymbolTable12LookupStringEPKc
0x000c2cb2	30	_ZNK11SymbolTable14GetSymbolCountEv
0x000c2c4a	103	_ZNK11SymbolTable8LookupIDEj
0x000c2cd0	71	_ZNK11SymbolTable9CalcCRC32Ev
0x000d795c	50	_ZNK12L6DictionaryI8L6StringP20A36EditBufferContextE3endEv
0x000d7aaa	74	_ZNK12L6DictionaryI8L6StringP20A36EditBufferContextE4findERKS0_
0x000d78fc	77	_ZNK12L6DictionaryI8L6StringP20A36EditBufferContextE5beginEv
0x000bd5ea	50	_ZNK12L6DictionaryI9L6Variant17L6EdLibParamGroupE3endEv
0x000bd590	74	_ZNK12L6DictionaryI9L6Variant17L6EdLibParamGroupE4findERKS0_
0x000bd940	161	_ZNK12L6DictionaryI9L6Variant17L6EdLibParamGroupE4sizeEv
0x000bd7ea	77	_ZNK12L6DictionaryI9L6Variant17L6EdLibParamGroupE5beginEv
0x000bd894	108	_ZNK12L6DictionaryI9L6Variant17L6EdLibParamGroupE8iterator3keyEv
0x00079ee2	50	_ZNK12L6DictionaryI9L6VariantS0_E3endEv
0x0007afcc	74	_ZNK12L6DictionaryI9L6VariantS0_E4findERKS0_
0x0007e5e6	161	_ZNK12L6DictionaryI9L6VariantS0_E4sizeEv
0x00079e82	77	_ZNK12L6DictionaryI9L6VariantS0_E5beginEv
0x00079f84	108	_ZNK12L6DictionaryI9L6VariantS0_E8iterator3keyEv
0x000cc1b6	50	_ZNK12L6DictionaryIj9L6VariantE3endEv
0x000cc16c	74	_ZNK12L6DictionaryIj9L6VariantE4findERKj
0x000846e8	50	_ZNK12L6DictionaryIjP10THREADINFOE3endEv
0x0008468e	74	_ZNK12L6DictionaryIjP10THREADINFOE4findERKj
0x000847bc	77	_ZNK12L6DictionaryIjP10THREADINFOE5beginEv
0x00084c2c	108	_ZNK12L6DictionaryIjP10THREADINFOE8iterator3keyEv
0x0008f4fc	50	_ZNK12L6DictionaryIjP8L6DeviceE3endEv
0x0008fb08	74	_ZNK12L6DictionaryIjP8L6DeviceE4findERKj
0x0008f3ec	161	_ZNK12L6DictionaryIjP8L6DeviceE4sizeEv
0x0008f49c	77	_ZNK12L6DictionaryIjP8L6DeviceE5beginEv
0x0008f6a6	108	_ZNK12L6DictionaryIjP8L6DeviceE8iterator3keyEv
0x000c16d8	161	_ZNK14BinaryTreeBaseI8L6String9L6VariantE6SearchEPNS2_4NodeERKS0_
0x000c15d8	76	_ZNK14BinaryTreeBaseI8L6String9L6VariantE8FindItemERKS0_
0x000d7fca	161	_ZNK14BinaryTreeBaseI8L6StringP20A36EditBufferContextE6SearchEPNS3_4NodeERKS0_
0x000d82ea	76	_ZNK14BinaryTreeBaseI8L6StringP20A36EditBufferContextE8FindItemERKS0_
0x000bdcd0	161	_ZNK14BinaryTreeBaseI9L6Variant17L6EdLibParamGroupE6SearchEPNS2_4NodeERKS0_
0x000be126	76	_ZNK14BinaryTreeBaseI9L6Variant17L6EdLibParamGroupE8FindItemERKS0_
0x0007b016	161	_ZNK14BinaryTreeBaseI9L6VariantS0_E6SearchEPNS1_4NodeERKS0_
0x0007ae74	76	_ZNK14BinaryTreeBaseI9L6VariantS0_E8FindItemERKS0_
0x000cc3ce	125	_ZNK14BinaryTreeBaseIj9L6VariantE6SearchEPNS1_4NodeERKj
0x000cc5a0	76	_ZNK14BinaryTreeBaseIj9L6VariantE8FindItemERKj
0x00084aaa	125	_ZNK14BinaryTreeBaseIjP10THREADINFOE6SearchEPNS2_4NodeERKj
0x00084d5c	76	_ZNK14BinaryTreeBaseIjP10THREADINFOE8FindItemERKj
0x0008ff28	125	_ZNK14BinaryTreeBaseIjP8L6DeviceE6SearchEPNS2_4NodeERKj
0x0009006a	76	_ZNK14BinaryTreeBaseIjP8L6DeviceE8FindItemERKj
0x000c3368	12	_ZNK15L6EdLibPresetV510IsModifiedEv
0x000b9868	147	_ZNK15L6EdLibPresetV511GetNumPropsERK9L6Variant
0x000ba262	267	_ZNK15L6EdLibPresetV511WriteToFileER8L6Buffer
0x000b9cd0	142	_ZNK15L6EdLibPresetV513GetParamCountEiRK9L6VariantS2_
0x000b9d5e	130	_ZNK15L6EdLibPresetV513GetParamGroupEiRK9L6Variant
0x000b98fc	168	_ZNK15L6EdLibPresetV514GetPropByIndexERK9L6VariantjRS0_S3_
0x000ba5cc	1260	_ZNK15L6EdLibPresetV514WriteToDataObjER9L6Variant
0x000bbf08	419	_ZNK15L6EdLibPresetV515WriteParamGroupERK17L6EdLibParamGroupPKcR9L6Variant
0x000b9de0	51	_ZNK15L6EdLibPresetV516GetParamGroupPtrEiRK9L6Variant
0x000ba19a	200	_ZNK15L6EdLibPresetV517GetAllParamGroupsEiR7L6ArrayI9L6VariantE
0x000b95f2	11	_ZNK15L6EdLibPresetV517getTargetDeviceIdEv
0x000bc0ac	374	_ZNK15L6EdLibPresetV519WriteAllParamGroupsEiR9L6Variant
0x000b95fe	11	_ZNK15L6EdLibPresetV522getTargetDeviceVersionEv
0x000bbdbc	332	_ZNK15L6EdLibPresetV524ParamGroupIDToParamGroupEiRK9L6Variant
0x000b97a2	198	_ZNK15L6EdLibPresetV57GetPropERK9L6VariantS2_
0x000b9bdc	157	_ZNK15L6EdLibPresetV58GetParamEiRK9L6VariantS2_RS0_
0x000bb0fc	3263	_ZNK15L6EdLibPresetV59DebugDumpEv
0x000b2bb0	40	_ZNK16L6EdLibModelDefs12GetNumModelsEv
0x000b2c2e	107	_ZNK16L6EdLibModelDefs14ModelFromSymIDERK8L6String
0x000b2ba4	11	_ZNK16L6EdLibModelDefs15GetDeviceFilterEv
0x000b2bd8	86	_ZNK16L6EdLibModelDefs15GetModelByIndexEj
0x000b2dc0	79	_ZNK16L6EdLibModelDefs23CheckParamValueForModelERK8L6StringS2_RK9L6VariantRS3_
0x000b2c9a	166	_ZNK16L6EdLibModelDefs23TweakClassForModelParamERK8L6StringS2_
0x000b2d40	128	_ZNK16L6EdLibModelDefs24ParamDefForModelAndParamERK8L6StringS2_
0x000b3b9c	200	_ZNK16L6EdLibModelDefs25ModelCompatibleWithDeviceEPKNS_8ModelDefEj
0x000ce056	8	_ZNK16L6EdLibModelDefs8ModelDef11getAttrDictEv
0x000c3646	40	_ZNK16L6EdLibModelDefs8ModelDef12GetNumParamsEv
0x000c366e	75	_ZNK16L6EdLibModelDefs8ModelDef15GetParamByIndexEj
0x000b22c8	358	_ZNK16L6EdLibModelDefs8ModelDef7getAttrEPKc
0x000b24da	75	_ZNK16L6EdLibModelDefs8ModelDef8GetParamERK8L6String
0x000ce04e	8	_ZNK16L6EdLibModelDefs8ParamDef11getAttrDictEv
0x000b1fd4	358	_ZNK16L6EdLibModelDefs8ParamDef7getAttrEPKc
0x000b8514	40	_ZNK17L6EdLibParamGroup12GetNumParamsEv
0x000b853c	192	_ZNK17L6EdLibParamGroup15GetParamByIndexEjR9L6VariantS1_
0x000b8cfc	569	_ZNK17L6EdLibParamGroup8GetParamERK9L6VariantRS0_
0x000d1570	15	_ZNK18A36EditorLibrarian11isConnectedEv
0x000d15a2	10	_ZNK18A36EditorLibrarian16getRuntimeOptionEiR9L6Variant
0x000ce94a	10	_ZNK18A36EditorLibrarian8getClassEv
0x00073aaa	14	_ZNK18L6AndroidNdkDevice19getCorrectedVersionEv
0x0009795c	11	_ZNK18L6MemoryFileStatic12getLastErrorEv
0x00112894	10	_ZNK4Json12StaticString5c_strEv
0x0011288a	10	_ZNK4Json12StaticStringcvPKcEv
0x00112e4c	65	_ZNK4Json17ValueIteratorBase10memberNameEv
0x00112c26	112	_ZNK4Json17ValueIteratorBase15computeDistanceERKS0_
0x00112ce6	228	_ZNK4Json17ValueIteratorBase3keyEv
0x00112bb2	40	_ZNK4Json17ValueIteratorBase5derefEv
0x00112dca	130	_ZNK4Json17ValueIteratorBase5indexEv
0x00112c96	64	_ZNK4Json17ValueIteratorBase7isEqualERKS0_
0x00116b80	220	_ZNK4Json4Path4makeERNS_5ValueE
0x0011690a	254	_ZNK4Json4Path7resolveERKNS_5ValueE
0x00116a08	375	_ZNK4Json4Path7resolveERKNS_5ValueES3_
0x00116052	216	_ZNK4Json5Value10getCommentENS_16CommentPlacementE
0x00116022	48	_ZNK4Json5Value10hasCommentENS_16CommentPlacementE
0x00115e2a	50	_ZNK4Json5Value10isIntegralEv
0x001156f2	43	_ZNK4Json5Value12isValidIndexEj
0x00115c18	457	_ZNK4Json5Value14getMemberNamesEv
0x0011612a	106	_ZNK4Json5Value14toStyledStringEv
0x00114af2	636	_ZNK4Json5Value15isConvertibleToENS_9ValueTypeE
0x00116208	115	_ZNK4Json5Value3endEv
0x00115940	86	_ZNK4Json5Value3getEPKcRKS0_
0x00115996	74	_ZNK4Json5Value3getERKSsRKS0_
0x0011569c	86	_ZNK4Json5Value3getEjRKS0_
0x00114d6e	240	_ZNK4Json5Value4sizeEv
0x00113b74	15	_ZNK4Json5Value4typeEv
0x00114280	741	_ZNK4Json5Value5asIntEv
0x00116194	115	_ZNK4Json5Value5beginEv
0x00114e5e	110	_ZNK4Json5Value5emptyEv
0x00115e06	17	_ZNK4Json5Value5isIntEv
0x00114a0c	230	_ZNK4Json5Value6asBoolEv
0x00114566	814	_ZNK4Json5Value6asUIntEv
0x00115df4	17	_ZNK4Json5Value6isBoolEv
0x00115de2	17	_ZNK4Json5Value6isNullEv
0x00115e18	17	_ZNK4Json5Value6isUIntEv
0x00115ec4	39	_ZNK4Json5Value7isArrayEv
0x001133f2	16	_ZNK4Json5Value8CZString14isStaticStringEv
0x001133e8	10	_ZNK4Json5Value8CZString5c_strEv
0x001133dc	11	_ZNK4Json5Value8CZString5indexEv
0x0011338a	81	_ZNK4Json5Value8CZStringeqERKS1_
0x0011333a	79	_ZNK4Json5Value8CZStringltERKS1_
0x00114894	376	_ZNK4Json5Value8asDoubleEv
0x00114014	620	_ZNK4Json5Value8asStringEv
0x00115e5c	17	_ZNK4Json5Value8isDoubleEv
0x00115ba8	59	_ZNK4Json5Value8isMemberEPKc
0x00115be4	52	_ZNK4Json5Value8isMemberERKSs
0x00115eec	39	_ZNK4Json5Value8isObjectEv
0x00115eb2	17	_ZNK4Json5Value8isStringEv
0x00113f74	160	_ZNK4Json5Value9asCStringEv
0x00115e6e	68	_ZNK4Json5Value9isNumericEv
0x00113db4	400	_ZNK4Json5ValueeqERKS0_
0x00113d58	47	_ZNK4Json5ValuegeERKS0_
0x00113d88	44	_ZNK4Json5ValuegtERKS0_
0x0011571e	314	_ZNK4Json5ValueixEPKc
0x0011588c	52	_ZNK4Json5ValueixERKSs
0x00115336	306	_ZNK4Json5ValueixEj
0x00113d28	47	_ZNK4Json5ValueleERKS0_
0x00113b8e	409	_ZNK4Json5ValueltERKS0_
0x00113f44	47	_ZNK4Json5ValueneERKS0_
0x00114ecc	37	_ZNK4Json5ValuentEv
0x0010d942	707	_ZNK4Json6Reader24getFormatedErrorMessagesEv
0x0010d864	221	_ZNK4Json6Reader24getLocationLineAndColumnEPKc
0x0010d7ae	182	_ZNK4Json6Reader24getLocationLineAndColumnEPKcRiS3_
0x000a8a0c	10	_ZNK5L6UUE7VersioncvjEv
0x00098f34	61	_ZNK5L6UUE9Exception4whatEv
0x00080ada	11	_ZNK6L6File12getLastErrorEv
0x0007a1ba	11	_ZNK6L6ListI12L6DictionaryI9L6VariantS1_EE4sizeEv
0x000d7784	16	_ZNK6L6ListIN23L6EdLibThreadEventQueue5EventEE5emptyEv
0x000b64b4	16	_ZNK6L6ListIN25L6EdLibNotificationCenter8ObserverEE5emptyEv
0x000f78dc	16	_ZNK6L6ListIP19toneMatchEventTokenE5emptyEv
0x000f76f6	16	_ZNK6L6ListIP24toneMatchEditorXferTokenE5emptyEv
0x000fcc84	16	_ZNK6L6ListIP27toneMatchLibrarianXferTokenE5emptyEv
0x00098e02	23	_ZNK7L6ArrayI8DataInfoE4sizeEv
0x000c1624	179	_ZNK7L6ArrayI8L6StringE3getEj
0x000c142a	23	_ZNK7L6ArrayI8L6StringE4sizeEv
0x0007031a	185	_ZNK7L6ArrayI9L6VariantE3getEj
0x00070194	23	_ZNK7L6ArrayI9L6VariantE4sizeEv
0x0008b5dc	179	_ZNK7L6ArrayIP19IDevicePortObserverE3getEj
0x0008b1fc	105	_ZNK7L6ArrayIP19IDevicePortObserverE4findERKS1_
0x0008b4f2	23	_ZNK7L6ArrayIP19IDevicePortObserverE4sizeEv
0x000b4dd0	179	_ZNK7L6ArrayIPN16L6EdLibModelDefs8ModelDefEE3getEj
0x000b4552	23	_ZNK7L6ArrayIPN16L6EdLibModelDefs8ModelDefEE4sizeEv
0x000b487e	44	_ZNK7L6ArrayIPN16L6EdLibModelDefs8ModelDefEEixEj
0x000b4b3a	179	_ZNK7L6ArrayIPN16L6EdLibModelDefs8ParamDefEE3getEj
0x000b3f32	23	_ZNK7L6ArrayIPN16L6EdLibModelDefs8ParamDefEE4sizeEv
0x000cbf66	44	_ZNK7L6ArrayIPN16L6EdLibModelDefs8ParamDefEEixEj
0x000bda42	179	_ZNK7L6ArrayIPN17L6EdLibParamGroup5PARAMEE3getEj
0x000bd0cc	105	_ZNK7L6ArrayIPN17L6EdLibParamGroup5PARAMEE4findERKS2_
0x000bccde	23	_ZNK7L6ArrayIPN17L6EdLibParamGroup5PARAMEE4sizeEv
0x000bccf6	44	_ZNK7L6ArrayIPN17L6EdLibParamGroup5PARAMEEixEj
0x0008fa9e	105	_ZNK7L6ArrayIjE4findERKj
0x0008f82e	23	_ZNK7L6ArrayIjE4sizeEv
0x000aeb2a	11	_ZNK7L6StackIN17L6DevLibIFFReader8CONTINFOEE4sizeEv
0x000efce8	11	_ZNK7L6StackIiE4sizeEv
0x0006cbf2	70	_ZNK8L6Buffer10getDataPtrEv
0x0006cc38	11	_ZNK8L6Buffer11getDataSizeEv
0x000739fe	11	_ZNK8L6Device10getVersionEv
0x000739f2	11	_ZNK8L6Device12getProductIdEv
0x00073a2e	11	_ZNK8L6Device14getFirmwareRevEv
0x00073a0a	11	_ZNK8L6Device14getProductNameEv
0x000885e0	11	_ZNK8L6Device15getSerialNumberEv
0x00073a16	11	_ZNK8L6Device22getOfficialProductNameEv
0x00073a22	11	_ZNK8L6Device8getModelEv
0x000885ec	11	_ZNK8L6Device8getStateEv
0x0006c978	90	_ZNK8L6String11calcLengthsEv
0x000714ec	31	_ZNK8L6String11lengthBytesEv
0x0007f6a0	31	_ZNK8L6String11lengthCharsEv
0x0007f8a2	219	_ZNK8L6String11reverseFindEwj
0x000882d0	389	_ZNK8L6String4findERKS_j
0x0007f7ba	232	_ZNK8L6String4findEwj
0x0007f6c0	128	_ZNK8L6String4leftEj
0x0007f740	121	_ZNK8L6String5rightEj
0x0007150c	445	_ZNK8L6String7compareERKS_ijb
0x000714c0	43	_ZNK8L6String7isEmptyEv
0x0007f0ec	93	_ZNK8L6String8getWCharEj
0x0007f97e	385	_ZNK8L6String9findOneOfERKS_j
0x0006c718	43	_ZNK8L6StringcvPKcEv
0x000716ca	140	_ZNK8L6StringeqERKS_
0x000bf6cc	71	_ZNK8L6StringltERKS_
0x000b7026	140	_ZNK8L6StringneERKS_
0x0008a9c0	11	_ZNK9L6MsgPort7getModeEv
0x0007333e	76	_ZNK9L6Variant13isIntegerTypeEv
0x0007322e	214	_ZNK9L6Variant17getDictionaryKeysER7L6ArrayIS_E
0x0007d264	172	_ZNK9L6Variant4sizeEv
0x00073304	57	_ZNK9L6Variant6isNullEv
0x000729ea	1609	_ZNK9L6Variant7compareERKS_
0x0008614a	10	_ZNK9L6Variant7getTypeEv
0x0007338a	903	_ZNK9L6Variant8toStringEb
0x00072946	135	_ZNK9L6Variantcv8L6StringEv
0x000729ce	28	_ZNK9L6VariantcvP12L6DictionaryIS_S_EEv
0x000860e8	28	_ZNK9L6VariantcvP7L6ArrayIS_EEv
0x000b4f82	28	_ZNK9L6VariantcvPvEv
0x00072016	431	_ZNK9L6VariantcvaEv
0x00071c38	989	_ZNK9L6VariantcvbEv
0x0007290e	55	_ZNK9L6VariantcvfEv
0x000721c6	418	_ZNK9L6VariantcvhEv
0x00072368	407	_ZNK9L6VariantcviEv
0x00072500	348	_ZNK9L6VariantcvjEv
0x0007265c	344	_ZNK9L6VariantcvxEv
0x000727b4	346	_ZNK9L6VariantcvyEv
0x00073034	49	_ZNK9L6VarianteqERKS_
0x000af892	233	_ZNK9L6VariantixEPKc
0x0007d1b6	173	_ZNK9L6VariantixERKS_
0x0007d0e8	205	_ZNK9L6VariantixEj
0x00073066	47	_ZNK9L6VariantltERKS_
0x0011aa02	10	_ZNK9__gnu_cxx13new_allocatorIN4Json12PathArgumentEE8max_sizeEv
0x00110890	10	_ZNK9__gnu_cxx13new_allocatorIN4Json6Reader9ErrorInfoEE8max_sizeEv
0x0011a958	10	_ZNK9__gnu_cxx13new_allocatorIPKN4Json12PathArgumentEE8max_sizeEv
0x001111ce	10	_ZNK9__gnu_cxx13new_allocatorIPN4Json5ValueEE8max_sizeEv
0x00111136	10	_ZNK9__gnu_cxx13new_allocatorIPN4Json6Reader9ErrorInfoEE8max_sizeEv
0x00111054	10	_ZNK9__gnu_cxx13new_allocatorIPPN4Json5ValueEE8max_sizeEv
0x0010a6ec	10	_ZNK9__gnu_cxx13new_allocatorISsE8max_sizeEv
0x0009d3a4	10	_ZNK9__gnu_cxx13new_allocatorISt10_List_nodeIN5L6UUE12UpdateEngine9ImageInfoEEE8max_sizeEv
0x0009c3d4	10	_ZNK9__gnu_cxx13new_allocatorISt10_List_nodeIPN5L6UUE12ImageArchive4NodeEEE8max_sizeEv
0x0009c3ca	10	_ZNK9__gnu_cxx13new_allocatorISt10_List_nodeIPN5L6UUE12ImageArchive5ImageEEE8max_sizeEv
0x0011ad14	10	_ZNK9__gnu_cxx13new_allocatorISt13_Rb_tree_nodeISt4pairIKN4Json5Value8CZStringES4_EEE8max_sizeEv
0x000a87fa	10	_ZNK9__gnu_cxx13new_allocatorISt13_Rb_tree_nodeISt4pairIKN5L6UUE12ConstraintIDENS3_3AnyEEEE8max_sizeEv
0x000a0852	10	_ZNK9__gnu_cxx13new_allocatorISt13_Rb_tree_nodeISt4pairIKN5L6UUE13UpdateCommandEiEEE8max_sizeEv
0x000a87f0	10	_ZNK9__gnu_cxx13new_allocatorISt13_Rb_tree_nodeISt4pairIKN5L6UUE13UpdateParamIDENS3_3AnyEEEE8max_sizeEv
0x000a87d2	10	_ZNK9__gnu_cxx13new_allocatorISt13_Rb_tree_nodeISt4pairIKN5L6UUE8DevCapIDEbEEE8max_sizeEv
0x000a87dc	10	_ZNK9__gnu_cxx13new_allocatorISt13_Rb_tree_nodeISt4pairIKN5L6UUE9DevPropIDENS3_3AnyEEEE8max_sizeEv
0x000a87e6	10	_ZNK9__gnu_cxx13new_allocatorISt13_Rb_tree_nodeISt4pairIKN5L6UUE9ImgMetaIDENS3_3AnyEEEE8max_sizeEv
0x000ad82e	10	_ZNK9__gnu_cxx13new_allocatorISt13_Rb_tree_nodeISt4pairIKjN5L6UUE9ImageInfoEEEE8max_sizeEv
0x0009c426	10	_ZNK9__gnu_cxx13new_allocatorISt13_Rb_tree_nodeISt4pairIKjjEEE8max_sizeEv
0x001189f6	8	_ZNK9__gnu_cxx17__normal_iteratorIPKN4Json12PathArgumentESt6vectorIS2_SaIS2_EEE4baseEv
0x00117626	10	_ZNK9__gnu_cxx17__normal_iteratorIPKN4Json12PathArgumentESt6vectorIS2_SaIS2_EEEdeEv
0x001189de	8	_ZNK9__gnu_cxx17__normal_iteratorIPKPKN4Json12PathArgumentESt6vectorIS4_SaIS4_EEE4baseEv
0x00117556	10	_ZNK9__gnu_cxx17__normal_iteratorIPKPKN4Json12PathArgumentESt6vectorIS4_SaIS4_EEEdeEv
0x0010a6e4	8	_ZNK9__gnu_cxx17__normal_iteratorIPKSsSt6vectorISsSaISsEEE4baseEv
0x0011a8aa	10	_ZNK9__gnu_cxx17__normal_iteratorIPKSsSt6vectorISsSaISsEEEdeEv
0x00119952	8	_ZNK9__gnu_cxx17__normal_iteratorIPN4Json12PathArgumentESt6vectorIS2_SaIS2_EEE4baseEv
0x001199a2	10	_ZNK9__gnu_cxx17__normal_iteratorIPN4Json12PathArgumentESt6vectorIS2_SaIS2_EEEdeEv
0x00119740	8	_ZNK9__gnu_cxx17__normal_iteratorIPPKN4Json12PathArgumentESt6vectorIS4_SaIS4_EEE4baseEv
0x00119790	10	_ZNK9__gnu_cxx17__normal_iteratorIPPKN4Json12PathArgumentESt6vectorIS4_SaIS4_EEEdeEv
0x000876b2	8	_ZNK9__gnu_cxx17__normal_iteratorIPSsSt6vectorISsSaISsEEE4baseEv
0x000872ca	10	_ZNK9__gnu_cxx17__normal_iteratorIPSsSt6vectorISsSaISsEEEdeEv
0x0009cf66	57	_ZNKSt10_List_baseIN5L6UUE12UpdateEngine9ImageInfoESaIS2_EE19_M_get_Tp_allocatorEv
0x0009d166	8	_ZNKSt10_List_baseIN5L6UUE12UpdateEngine9ImageInfoESaIS2_EE21_M_get_Node_allocatorEv
0x0009afb6	57	_ZNKSt10_List_baseIPN5L6UUE12ImageArchive4NodeESaIS3_EE19_M_get_Tp_allocatorEv
0x0009b8be	8	_ZNKSt10_List_baseIPN5L6UUE12ImageArchive4NodeESaIS3_EE21_M_get_Node_allocatorEv
0x0009aeaa	57	_ZNKSt10_List_baseIPN5L6UUE12ImageArchive5ImageESaIS3_EE19_M_get_Tp_allocatorEv
0x0009b83e	8	_ZNKSt10_List_baseIPN5L6UUE12ImageArchive5ImageESaIS3_EE21_M_get_Node_allocatorEv
0x0011919e	8	_ZNKSt10_Select1stISt4pairIKN4Json5Value8CZStringES2_EEclERKS5_
0x000a0648	8	_ZNKSt10_Select1stISt4pairIKN5L6UUE12ConstraintIDENS1_3AnyEEEclERKS5_
0x000a0118	8	_ZNKSt10_Select1stISt4pairIKN5L6UUE13UpdateCommandEiEEclERKS4_
0x000a70d8	8	_ZNKSt10_Select1stISt4pairIKN5L6UUE13UpdateParamIDENS1_3AnyEEEclERKS5_
0x000a6292	8	_ZNKSt10_Select1stISt4pairIKN5L6UUE8DevCapIDEbEEclERKS4_
0x000a6754	8	_ZNKSt10_Select1stISt4pairIKN5L6UUE9DevPropIDENS1_3AnyEEEclERKS5_
0x000a6c16	8	_ZNKSt10_Select1stISt4pairIKN5L6UUE9ImgMetaIDENS1_3AnyEEEclERKS5_
0x000acf12	8	_ZNKSt10_Select1stISt4pairIKjN5L6UUE9ImageInfoEEEclERKS4_
0x0009bb28	8	_ZNKSt10_Select1stISt4pairIKjjEEclERKS2_
0x0016a760	22	_ZNKSt10bad_typeid4whatEv
0x00087cfc	8	_ZNKSt11_Deque_baseIN4Json6Reader9ErrorInfoESaIS2_EE19_M_get_Tp_allocatorEv
0x00087b78	57	_ZNKSt11_Deque_baseIN4Json6Reader9ErrorInfoESaIS2_EE20_M_get_map_allocatorEv
0x00087ca2	8	_ZNKSt11_Deque_baseIPN4Json5ValueESaIS2_EE19_M_get_Tp_allocatorEv
0x00087aae	57	_ZNKSt11_Deque_baseIPN4Json5ValueESaIS2_EE20_M_get_map_allocatorEv
0x0011a9fa	8	_ZNKSt12_Vector_baseIN4Json12PathArgumentESaIS1_EE19_M_get_Tp_allocatorEv
0x0011a950	8	_ZNKSt12_Vector_baseIPKN4Json12PathArgumentESaIS3_EE19_M_get_Tp_allocatorEv
0x0010a108	8	_ZNKSt12_Vector_baseISsSaISsEE19_M_get_Tp_allocatorEv
0x0016b450	22	_ZNKSt13bad_exception4whatEv
0x0009ccd2	13	_ZNKSt14_List_iteratorIN5L6UUE12UpdateEngine9ImageInfoEEdeEv
0x0009ccaa	20	_ZNKSt14_List_iteratorIN5L6UUE12UpdateEngine9ImageInfoEEneERKS3_
0x000ab364	42	_ZNKSt14_List_iteratorIN5L6UUE12UpdateEngine9ImageInfoEEptEv
0x0009a89e	13	_ZNKSt14_List_iteratorIPN5L6UUE12ImageArchive4NodeEEdeEv
0x0009a876	20	_ZNKSt14_List_iteratorIPN5L6UUE12ImageArchive4NodeEEneERKS4_
0x0009a4a2	13	_ZNKSt14_List_iteratorIPN5L6UUE12ImageArchive5ImageEEdeEv
0x0009a47a	20	_ZNKSt14_List_iteratorIPN5L6UUE12ImageArchive5ImageEEneERKS4_
0x0010e0fc	10	_ZNKSt15_Deque_iteratorIN4Json6Reader9ErrorInfoERKS2_PS3_EdeEv
0x00111aec	10	_ZNKSt15_Deque_iteratorIN4Json6Reader9ErrorInfoERS2_PS2_EdeEv
0x001109b2	82	_ZNKSt15_Deque_iteratorIN4Json6Reader9ErrorInfoERS2_PS2_EmiEi
0x0010e682	82	_ZNKSt15_Deque_iteratorIN4Json6Reader9ErrorInfoERS2_PS2_EplEi
0x0011261e	10	_ZNKSt15_Deque_iteratorIPN4Json5ValueERKS2_PS3_EdeEv
0x0010f318	10	_ZNKSt15_Deque_iteratorIPN4Json5ValueERS2_PS2_EdeEv
0x00116d1c	13	_ZNKSt17_Rb_tree_iteratorISt4pairIKN4Json5Value8CZStringES2_EEdeEv
0x00116d08	20	_ZNKSt17_Rb_tree_iteratorISt4pairIKN4Json5Value8CZStringES2_EEeqERKS6_
0x00116cf4	20	_ZNKSt17_Rb_tree_iteratorISt4pairIKN4Json5Value8CZStringES2_EEneERKS6_
0x00116c6a	42	_ZNKSt17_Rb_tree_iteratorISt4pairIKN4Json5Value8CZStringES2_EEptEv
0x000a4720	13	_ZNKSt17_Rb_tree_iteratorISt4pairIKN5L6UUE12ConstraintIDENS1_3AnyEEEdeEv
0x0009f612	20	_ZNKSt17_Rb_tree_iteratorISt4pairIKN5L6UUE12ConstraintIDENS1_3AnyEEEeqERKS6_
0x000a3c18	20	_ZNKSt17_Rb_tree_iteratorISt4pairIKN5L6UUE12ConstraintIDENS1_3AnyEEEneERKS6_
0x0009f626	42	_ZNKSt17_Rb_tree_iteratorISt4pairIKN5L6UUE12ConstraintIDENS1_3AnyEEEptEv
0x0009f6bc	13	_ZNKSt17_Rb_tree_iteratorISt4pairIKN5L6UUE13UpdateCommandEiEEdeEv
0x0009f6e0	20	_ZNKSt17_Rb_tree_iteratorISt4pairIKN5L6UUE13UpdateCommandEiEEeqERKS5_
0x0009e7f4	20	_ZNKSt17_Rb_tree_iteratorISt4pairIKN5L6UUE13UpdateCommandEiEEneERKS5_
0x0009e808	42	_ZNKSt17_Rb_tree_iteratorISt4pairIKN5L6UUE13UpdateCommandEiEEptEv
0x000a4544	13	_ZNKSt17_Rb_tree_iteratorISt4pairIKN5L6UUE13UpdateParamIDENS1_3AnyEEEdeEv
0x000a4568	20	_ZNKSt17_Rb_tree_iteratorISt4pairIKN5L6UUE13UpdateParamIDENS1_3AnyEEEeqERKS6_
0x000a3a1c	20	_ZNKSt17_Rb_tree_iteratorISt4pairIKN5L6UUE13UpdateParamIDENS1_3AnyEEEneERKS6_
0x000a3a60	42	_ZNKSt17_Rb_tree_iteratorISt4pairIKN5L6UUE13UpdateParamIDENS1_3AnyEEEptEv
0x000a3f00	13	_ZNKSt17_Rb_tree_iteratorISt4pairIKN5L6UUE8DevCapIDEbEEdeEv
0x000a3f24	20	_ZNKSt17_Rb_tree_iteratorISt4pairIKN5L6UUE8DevCapIDEbEEeqERKS5_
0x000a339c	20	_ZNKSt17_Rb_tree_iteratorISt4pairIKN5L6UUE8DevCapIDEbEEneERKS5_
0x000a33e0	42	_ZNKSt17_Rb_tree_iteratorISt4pairIKN5L6UUE8DevCapIDEbEEptEv
0x000a4114	13	_ZNKSt17_Rb_tree_iteratorISt4pairIKN5L6UUE9DevPropIDENS1_3AnyEEEdeEv
0x000a4138	20	_ZNKSt17_Rb_tree_iteratorISt4pairIKN5L6UUE9DevPropIDENS1_3AnyEEEeqERKS6_
0x000a35c0	20	_ZNKSt17_Rb_tree_iteratorISt4pairIKN5L6UUE9DevPropIDENS1_3AnyEEEneERKS6_
0x000a3604	42	_ZNKSt17_Rb_tree_iteratorISt4pairIKN5L6UUE9DevPropIDENS1_3AnyEEEptEv
0x000a432c	13	_ZNKSt17_Rb_tree_iteratorISt4pairIKN5L6UUE9ImgMetaIDENS1_3AnyEEEdeEv
0x000a4350	20	_ZNKSt17_Rb_tree_iteratorISt4pairIKN5L6UUE9ImgMetaIDENS1_3AnyEEEeqERKS6_
0x000a37ee	20	_ZNKSt17_Rb_tree_iteratorISt4pairIKN5L6UUE9ImgMetaIDENS1_3AnyEEEneERKS6_
0x000a3832	42	_ZNKSt17_Rb_tree_iteratorISt4pairIKN5L6UUE9ImgMetaIDENS1_3AnyEEEptEv
0x000abefa	13	_ZNKSt17_Rb_tree_iteratorISt4pairIKjN5L6UUE9ImageInfoEEEdeEv
0x000ab80a	20	_ZNKSt17_Rb_tree_iteratorISt4pairIKjN5L6UUE9ImageInfoEEEeqERKS5_
0x000ab2f6	20	_ZNKSt17_Rb_tree_iteratorISt4pairIKjN5L6UUE9ImageInfoEEEneERKS5_
0x000ab33a	42	_ZNKSt17_Rb_tree_iteratorISt4pairIKjN5L6UUE9ImageInfoEEEptEv
0x0009aaf0	13	_ZNKSt17_Rb_tree_iteratorISt4pairIKjjEEdeEv
0x0009ab12	20	_ZNKSt17_Rb_tree_iteratorISt4pairIKjjEEeqERKS3_
0x0009a188	20	_ZNKSt17_Rb_tree_iteratorISt4pairIKjjEEneERKS3_
0x0009a1cc	42	_ZNKSt17_Rb_tree_iteratorISt4pairIKjjEEptEv
0x0009d2fa	20	_ZNKSt20_List_const_iteratorIN5L6UUE12UpdateEngine9ImageInfoEEneERKS3_
0x0009c050	20	_ZNKSt20_List_const_iteratorIPN5L6UUE12ImageArchive4NodeEEneERKS4_
0x0009bf50	20	_ZNKSt20_List_const_iteratorIPN5L6UUE12ImageArchive5ImageEEneERKS4_
0x001194a0	51	_ZNKSt23_Rb_tree_const_iteratorISt4pairIKN4Json5Value8CZStringES2_EE13_M_const_castEv
0x00116f8c	13	_ZNKSt23_Rb_tree_const_iteratorISt4pairIKN4Json5Value8CZStringES2_EEdeEv
0x0011710e	20	_ZNKSt23_Rb_tree_const_iteratorISt4pairIKN4Json5Value8CZStringES2_EEeqERKS6_
0x00117242	20	_ZNKSt23_Rb_tree_const_iteratorISt4pairIKN4Json5Value8CZStringES2_EEneERKS6_
0x000a77f0	51	_ZNKSt23_Rb_tree_const_iteratorISt4pairIKN5L6UUE12ConstraintIDENS1_3AnyEEE13_M_const_castEv
0x000a0554	51	_ZNKSt23_Rb_tree_const_iteratorISt4pairIKN5L6UUE13UpdateCommandEiEE13_M_const_castEv
0x000a740c	51	_ZNKSt23_Rb_tree_const_iteratorISt4pairIKN5L6UUE13UpdateParamIDENS1_3AnyEEE13_M_const_castEv
0x000a65c6	51	_ZNKSt23_Rb_tree_const_iteratorISt4pairIKN5L6UUE8DevCapIDEbEE13_M_const_castEv
0x000a6a88	51	_ZNKSt23_Rb_tree_const_iteratorISt4pairIKN5L6UUE9DevPropIDENS1_3AnyEEE13_M_const_castEv
0x000a6f4a	51	_ZNKSt23_Rb_tree_const_iteratorISt4pairIKN5L6UUE9ImgMetaIDENS1_3AnyEEE13_M_const_castEv
0x000ad45c	51	_ZNKSt23_Rb_tree_const_iteratorISt4pairIKjN5L6UUE9ImageInfoEEE13_M_const_castEv
0x0009be5c	51	_ZNKSt23_Rb_tree_const_iteratorISt4pairIKjjEE13_M_const_castEv
0x00116e76	37	_ZNKSt3mapIN4Json5Value8CZStringES1_St4lessIS2_ESaISt4pairIKS2_S1_EEE4sizeEv
0x00116ef4	37	_ZNKSt3mapIN4Json5Value8CZStringES1_St4lessIS2_ESaISt4pairIKS2_S1_EEE5emptyEv
0x000a3bc0	37	_ZNKSt3mapIN5L6UUE12ConstraintIDENS0_3AnyESt4lessIS1_ESaISt4pairIKS1_S2_EEE4sizeEv
0x000a46ee	50	_ZNKSt3mapIN5L6UUE12ConstraintIDENS0_3AnyESt4lessIS1_ESaISt4pairIKS1_S2_EEE8key_compEv
0x0009f68a	50	_ZNKSt3mapIN5L6UUE13UpdateCommandEiSt4lessIS1_ESaISt4pairIKS1_iEEE8key_compEv
0x000a3992	37	_ZNKSt3mapIN5L6UUE13UpdateParamIDENS0_3AnyESt4lessIS1_ESaISt4pairIKS1_S2_EEE4sizeEv
0x000a4512	50	_ZNKSt3mapIN5L6UUE13UpdateParamIDENS0_3AnyESt4lessIS1_ESaISt4pairIKS1_S2_EEE8key_compEv
0x000a3312	37	_ZNKSt3mapIN5L6UUE8DevCapIDEbSt4lessIS1_ESaISt4pairIKS1_bEEE4sizeEv
0x000a3ece	50	_ZNKSt3mapIN5L6UUE8DevCapIDEbSt4lessIS1_ESaISt4pairIKS1_bEEE8key_compEv
0x000a3536	37	_ZNKSt3mapIN5L6UUE9DevPropIDENS0_3AnyESt4lessIS1_ESaISt4pairIKS1_S2_EEE4sizeEv
0x000a40e2	50	_ZNKSt3mapIN5L6UUE9DevPropIDENS0_3AnyESt4lessIS1_ESaISt4pairIKS1_S2_EEE8key_compEv
0x000a3764	37	_ZNKSt3mapIN5L6UUE9ImgMetaIDENS0_3AnyESt4lessIS1_ESaISt4pairIKS1_S2_EEE4sizeEv
0x000a42fa	50	_ZNKSt3mapIN5L6UUE9ImgMetaIDENS0_3AnyESt4lessIS1_ESaISt4pairIKS1_S2_EEE8key_compEv
0x000abec8	50	_ZNKSt3mapIjN5L6UUE9ImageInfoESt4lessIjESaISt4pairIKjS1_EEE8key_compEv
0x0009a0fe	37	_ZNKSt3mapIjjSt4lessIjESaISt4pairIKjjEEE4sizeEv
0x0009aabe	50	_ZNKSt3mapIjjSt4lessIjESaISt4pairIKjjEEE8key_compEv
0x001191a6	44	_ZNKSt4lessIN4Json5Value8CZStringEEclERKS2_S5_
0x000a01f8	22	_ZNKSt4lessIN5L6UUE12ConstraintIDEEclERKS1_S4_
0x0009f6ca	22	_ZNKSt4lessIN5L6UUE13UpdateCommandEEclERKS1_S4_
0x000a4552	22	_ZNKSt4lessIN5L6UUE13UpdateParamIDEEclERKS1_S4_
0x000a3f0e	22	_ZNKSt4lessIN5L6UUE8DevCapIDEEclERKS1_S4_
0x000a4122	22	_ZNKSt4lessIN5L6UUE9DevPropIDEEclERKS1_S4_
0x000a433a	22	_ZNKSt4lessIN5L6UUE9ImgMetaIDEEclERKS1_S4_
0x0009aafe	20	_ZNKSt4lessIjEclERKjS2_
0x0009ce8a	49	_ZNKSt4listIN5L6UUE12UpdateEngine9ImageInfoESaIS2_EE3endEv
0x0009cbe0	86	_ZNKSt4listIN5L6UUE12UpdateEngine9ImageInfoESaIS2_EE4sizeEv
0x0009ce56	51	_ZNKSt4listIN5L6UUE12UpdateEngine9ImageInfoESaIS2_EE5beginEv
0x0009b09a	49	_ZNKSt4listIPN5L6UUE12ImageArchive4NodeESaIS3_EE3endEv
0x0009a8dc	86	_ZNKSt4listIPN5L6UUE12ImageArchive4NodeESaIS3_EE4sizeEv
0x0009b066	51	_ZNKSt4listIPN5L6UUE12ImageArchive4NodeESaIS3_EE5beginEv
0x0009ad44	49	_ZNKSt4listIPN5L6UUE12ImageArchive5ImageESaIS3_EE3endEv
0x0009a3be	86	_ZNKSt4listIPN5L6UUE12ImageArchive5ImageESaIS3_EE4sizeEv
0x0009ad10	51	_ZNKSt4listIPN5L6UUE12ImageArchive5ImageESaIS3_EE5beginEv
0x0010e03c	52	_ZNKSt5dequeIN4Json6Reader9ErrorInfoESaIS2_EE3endEv
0x0010df06	50	_ZNKSt5dequeIN4Json6Reader9ErrorInfoESaIS2_EE4sizeEv
0x0010e008	52	_ZNKSt5dequeIN4Json6Reader9ErrorInfoESaIS2_EE5beginEv
0x001112c0	45	_ZNKSt5dequeIN4Json6Reader9ErrorInfoESaIS2_EE8max_sizeEv
0x0010ea4c	52	_ZNKSt5dequeIPN4Json5ValueESaIS2_EE3endEv
0x0010e98c	50	_ZNKSt5dequeIPN4Json5ValueESaIS2_EE4sizeEv
0x0010ea18	52	_ZNKSt5dequeIPN4Json5ValueESaIS2_EE5beginEv
0x0010e36c	50	_ZNKSt5dequeIPN4Json5ValueESaIS2_EE5emptyEv
0x0010ddd6	37	_ZNKSt5stackIPN4Json5ValueESt5dequeIS2_SaIS2_EEE5emptyEv
0x001199ac	179	_ZNKSt6vectorIN4Json12PathArgumentESaIS1_EE12_M_check_lenEjPKc
0x0011759a	58	_ZNKSt6vectorIN4Json12PathArgumentESaIS1_EE3endEv
0x0011a3ec	33	_ZNKSt6vectorIN4Json12PathArgumentESaIS1_EE4sizeEv
0x00117560	57	_ZNKSt6vectorIN4Json12PathArgumentESaIS1_EE5beginEv
0x0011a40e	45	_ZNKSt6vectorIN4Json12PathArgumentESaIS1_EE8max_sizeEv
0x0011979a	179	_ZNKSt6vectorIPKN4Json12PathArgumentESaIS3_EE12_M_check_lenEjPKc
0x001174e0	58	_ZNKSt6vectorIPKN4Json12PathArgumentESaIS3_EE3endEv
0x0011a2b4	27	_ZNKSt6vectorIPKN4Json12PathArgumentESaIS3_EE4sizeEv
0x00117422	57	_ZNKSt6vectorIPKN4Json12PathArgumentESaIS3_EE5beginEv
0x0011a2d0	45	_ZNKSt6vectorIPKN4Json12PathArgumentESaIS3_EE8max_sizeEv
0x0010a770	179	_ZNKSt6vectorISsSaISsEE12_M_check_lenEjPKc
0x0010a14a	58	_ZNKSt6vectorISsSaISsEE3endEv
0x00109e90	27	_ZNKSt6vectorISsSaISsEE4sizeEv
0x0010a110	57	_ZNKSt6vectorISsSaISsEE5beginEv
0x00109dec	86	_ZNKSt6vectorISsSaISsEE5emptyEv
0x0010a25c	27	_ZNKSt6vectorISsSaISsEE8capacityEv
0x0010a22e	45	_ZNKSt6vectorISsSaISsEE8max_sizeEv
0x00119c6c	57	_ZNKSt8_Rb_treeIN4Json5Value8CZStringESt4pairIKS2_S1_ESt10_Select1stIS5_ESt4lessIS2_ESaIS5_EE13get_allocatorEv
0x00118a7c	8	_ZNKSt8_Rb_treeIN4Json5Value8CZStringESt4pairIKS2_S1_ESt10_Select1stIS5_ESt4lessIS2_ESaIS5_EE21_M_get_Node_allocatorEv
0x00118d9c	52	_ZNKSt8_Rb_treeIN4Json5Value8CZStringESt4pairIKS2_S1_ESt10_Select1stIS5_ESt4lessIS2_ESaIS5_EE3endEv
0x001177fa	11	_ZNKSt8_Rb_treeIN4Json5Value8CZStringESt4pairIKS2_S1_ESt10_Select1stIS5_ESt4lessIS2_ESaIS5_EE4sizeEv
0x00118d68	52	_ZNKSt8_Rb_treeIN4Json5Value8CZStringESt4pairIKS2_S1_ESt10_Select1stIS5_ESt4lessIS2_ESaIS5_EE5beginEv
0x00117938	16	_ZNKSt8_Rb_treeIN4Json5Value8CZStringESt4pairIKS2_S1_ESt10_Select1stIS5_ESt4lessIS2_ESaIS5_EE5emptyEv
0x00118b08	11	_ZNKSt8_Rb_treeIN4Json5Value8CZStringESt4pairIKS2_S1_ESt10_Select1stIS5_ESt4lessIS2_ESaIS5_EE7_M_rootEv
0x00118c44	11	_ZNKSt8_Rb_treeIN4Json5Value8CZStringESt4pairIKS2_S1_ESt10_Select1stIS5_ESt4lessIS2_ESaIS5_EE8_M_beginEv
0x000a8024	57	_ZNKSt8_Rb_treeIN5L6UUE12ConstraintIDESt4pairIKS1_NS0_3AnyEESt10_Select1stIS5_ESt4lessIS1_ESaIS5_EE13get_allocatorEv
0x000a8558	8	_ZNKSt8_Rb_treeIN5L6UUE12ConstraintIDESt4pairIKS1_NS0_3AnyEESt10_Select1stIS5_ESt4lessIS1_ESaIS5_EE21_M_get_Node_allocatorEv
0x000a45ee	11	_ZNKSt8_Rb_treeIN5L6UUE12ConstraintIDESt4pairIKS1_NS0_3AnyEESt10_Select1stIS5_ESt4lessIS1_ESaIS5_EE4sizeEv
0x000a5d22	11	_ZNKSt8_Rb_treeIN5L6UUE12ConstraintIDESt4pairIKS1_NS0_3AnyEESt10_Select1stIS5_ESt4lessIS1_ESaIS5_EE8key_compEv
0x000a0018	57	_ZNKSt8_Rb_treeIN5L6UUE13UpdateCommandESt4pairIKS1_iESt10_Select1stIS4_ESt4lessIS1_ESaIS4_EE13get_allocatorEv
0x000a058e	8	_ZNKSt8_Rb_treeIN5L6UUE13UpdateCommandESt4pairIKS1_iESt10_Select1stIS4_ESt4lessIS1_ESaIS4_EE21_M_get_Node_allocatorEv
0x000a021c	11	_ZNKSt8_Rb_treeIN5L6UUE13UpdateCommandESt4pairIKS1_iESt10_Select1stIS4_ESt4lessIS1_ESaIS4_EE4sizeEv
0x0009fb86	11	_ZNKSt8_Rb_treeIN5L6UUE13UpdateCommandESt4pairIKS1_iESt10_Select1stIS4_ESt4lessIS1_ESaIS4_EE8key_compEv
0x000a7e24	57	_ZNKSt8_Rb_treeIN5L6UUE13UpdateParamIDESt4pairIKS1_NS0_3AnyEESt10_Select1stIS5_ESt4lessIS1_ESaIS5_EE13get_allocatorEv
0x000a847a	8	_ZNKSt8_Rb_treeIN5L6UUE13UpdateParamIDESt4pairIKS1_NS0_3AnyEESt10_Select1stIS5_ESt4lessIS1_ESaIS5_EE21_M_get_Node_allocatorEv
0x000a43d6	11	_ZNKSt8_Rb_treeIN5L6UUE13UpdateParamIDESt4pairIKS1_NS0_3AnyEESt10_Select1stIS5_ESt4lessIS1_ESaIS5_EE4sizeEv
0x000a5822	11	_ZNKSt8_Rb_treeIN5L6UUE13UpdateParamIDESt4pairIKS1_NS0_3AnyEESt10_Select1stIS5_ESt4lessIS1_ESaIS5_EE8key_compEv
0x000a7824	57	_ZNKSt8_Rb_treeIN5L6UUE8DevCapIDESt4pairIKS1_bESt10_Select1stIS4_ESt4lessIS1_ESaIS4_EE13get_allocatorEv
0x000a81e4	8	_ZNKSt8_Rb_treeIN5L6UUE8DevCapIDESt4pairIKS1_bESt10_Select1stIS4_ESt4lessIS1_ESaIS4_EE21_M_get_Node_allocatorEv
0x000a3d92	11	_ZNKSt8_Rb_treeIN5L6UUE8DevCapIDESt4pairIKS1_bESt10_Select1stIS4_ESt4lessIS1_ESaIS4_EE4sizeEv
0x000a48b0	11	_ZNKSt8_Rb_treeIN5L6UUE8DevCapIDESt4pairIKS1_bESt10_Select1stIS4_ESt4lessIS1_ESaIS4_EE8key_compEv
0x000a7a24	57	_ZNKSt8_Rb_treeIN5L6UUE9DevPropIDESt4pairIKS1_NS0_3AnyEESt10_Select1stIS5_ESt4lessIS1_ESaIS5_EE13get_allocatorEv
0x000a82be	8	_ZNKSt8_Rb_treeIN5L6UUE9DevPropIDESt4pairIKS1_NS0_3AnyEESt10_Select1stIS5_ESt4lessIS1_ESaIS5_EE21_M_get_Node_allocatorEv
0x000a3fa6	11	_ZNKSt8_Rb_treeIN5L6UUE9DevPropIDESt4pairIKS1_NS0_3AnyEESt10_Select1stIS5_ESt4lessIS1_ESaIS5_EE4sizeEv
0x000a4dd6	11	_ZNKSt8_Rb_treeIN5L6UUE9DevPropIDESt4pairIKS1_NS0_3AnyEESt10_Select1stIS5_ESt4lessIS1_ESaIS5_EE8key_compEv
0x000a7c24	57	_ZNKSt8_Rb_treeIN5L6UUE9ImgMetaIDESt4pairIKS1_NS0_3AnyEESt10_Select1stIS5_ESt4lessIS1_ESaIS5_EE13get_allocatorEv
0x000a839c	8	_ZNKSt8_Rb_treeIN5L6UUE9ImgMetaIDESt4pairIKS1_NS0_3AnyEESt10_Select1stIS5_ESt4lessIS1_ESaIS5_EE21_M_get_Node_allocatorEv
0x000a41be	11	_ZNKSt8_Rb_treeIN5L6UUE9ImgMetaIDESt4pairIKS1_NS0_3AnyEESt10_Select1stIS5_ESt4lessIS1_ESaIS5_EE4sizeEv
0x000acaae	11	_ZNKSt8_Rb_treeIN5L6UUE9ImgMetaIDESt4pairIKS1_NS0_3AnyEESt10_Select1stIS5_ESt4lessIS1_ESaIS5_EE7_M_rootEv
0x000acbea	11	_ZNKSt8_Rb_treeIN5L6UUE9ImgMetaIDESt4pairIKS1_NS0_3AnyEESt10_Select1stIS5_ESt4lessIS1_ESaIS5_EE8_M_beginEv
0x000a52fc	11	_ZNKSt8_Rb_treeIN5L6UUE9ImgMetaIDESt4pairIKS1_NS0_3AnyEESt10_Select1stIS5_ESt4lessIS1_ESaIS5_EE8key_compEv
0x000acd6a	57	_ZNKSt8_Rb_treeIjSt4pairIKjN5L6UUE9ImageInfoEESt10_Select1stIS4_ESt4lessIjESaIS4_EE13get_allocatorEv
0x000ad4f4	8	_ZNKSt8_Rb_treeIjSt4pairIKjN5L6UUE9ImageInfoEESt10_Select1stIS4_ESt4lessIjESaIS4_EE21_M_get_Node_allocatorEv
0x000ad124	11	_ZNKSt8_Rb_treeIjSt4pairIKjN5L6UUE9ImageInfoEESt10_Select1stIS4_ESt4lessIjESaIS4_EE4sizeEv
0x000ac66c	11	_ZNKSt8_Rb_treeIjSt4pairIKjN5L6UUE9ImageInfoEESt10_Select1stIS4_ESt4lessIjESaIS4_EE8key_compEv
0x0009be90	57	_ZNKSt8_Rb_treeIjSt4pairIKjjESt10_Select1stIS2_ESt4lessIjESaIS2_EE13get_allocatorEv
0x0009c24c	8	_ZNKSt8_Rb_treeIjSt4pairIKjjESt10_Select1stIS2_ESt4lessIjESaIS2_EE21_M_get_Node_allocatorEv
0x0009aa08	11	_ZNKSt8_Rb_treeIjSt4pairIKjjESt10_Select1stIS2_ESt4lessIjESaIS2_EE4sizeEv
0x0009d534	11	_ZNKSt8_Rb_treeIjSt4pairIKjjESt10_Select1stIS2_ESt4lessIjESaIS2_EE7_M_rootEv
0x0009d670	11	_ZNKSt8_Rb_treeIjSt4pairIKjjESt10_Select1stIS2_ESt4lessIjESaIS2_EE8_M_beginEv
0x0009b1f2	11	_ZNKSt8_Rb_treeIjSt4pairIKjjESt10_Select1stIS2_ESt4lessIjESaIS2_EE8key_compEv
0x0016a6d0	22	_ZNKSt8bad_cast4whatEv
0x0016a640	22	_ZNKSt9bad_alloc4whatEv
0x0016b430	22	_ZNKSt9exception4whatEv
0x0011a154	37	_ZNSaIN4Json12PathArgumentEEC1Ev
0x0011a154	37	_ZNSaIN4Json12PathArgumentEEC2Ev
0x001195e6	37	_ZNSaIN4Json12PathArgumentEED1Ev
0x001195e6	37	_ZNSaIN4Json12PathArgumentEED2Ev
0x0010f640	37	_ZNSaIN4Json6Reader9ErrorInfoEEC1Ev
0x0010f640	37	_ZNSaIN4Json6Reader9ErrorInfoEEC2Ev
0x00087820	37	_ZNSaIN4Json6Reader9ErrorInfoEED1Ev
0x00087820	37	_ZNSaIN4Json6Reader9ErrorInfoEED2Ev
0x0009d16e	37	_ZNSaIN5L6UUE12UpdateEngine9ImageInfoEEC1ISt10_List_nodeIS1_EEERKSaIT_E
0x0009d16e	37	_ZNSaIN5L6UUE12UpdateEngine9ImageInfoEEC2ISt10_List_nodeIS1_EEERKSaIT_E
0x0009cfa0	37	_ZNSaIN5L6UUE12UpdateEngine9ImageInfoEED1Ev
0x0009cfa0	37	_ZNSaIN5L6UUE12UpdateEngine9ImageInfoEED2Ev
0x0011a1e6	37	_ZNSaIPKN4Json12PathArgumentEEC1Ev
0x0011a1e6	37	_ZNSaIPKN4Json12PathArgumentEEC2Ev
0x001196b4	37	_ZNSaIPKN4Json12PathArgumentEED1Ev
0x001196b4	37	_ZNSaIPKN4Json12PathArgumentEED2Ev
0x00110494	44	_ZNSaIPN4Json5ValueEEC1ERKS2_
0x0010f348	37	_ZNSaIPN4Json5ValueEEC1Ev
0x00110494	44	_ZNSaIPN4Json5ValueEEC2ERKS2_
0x0010f348	37	_ZNSaIPN4Json5ValueEEC2Ev
0x00087746	37	_ZNSaIPN4Json5ValueEED1Ev
0x00087746	37	_ZNSaIPN4Json5ValueEED2Ev
0x00087d04	37	_ZNSaIPN4Json6Reader9ErrorInfoEEC1IS1_EERKSaIT_E
0x00087d04	37	_ZNSaIPN4Json6Reader9ErrorInfoEEC2IS1_EERKSaIT_E
0x00087bb2	37	_ZNSaIPN4Json6Reader9ErrorInfoEED1Ev
0x00087bb2	37	_ZNSaIPN4Json6Reader9ErrorInfoEED2Ev
0x0009b8c6	37	_ZNSaIPN5L6UUE12ImageArchive4NodeEEC1ISt10_List_nodeIS2_EEERKSaIT_E
0x0009b8c6	37	_ZNSaIPN5L6UUE12ImageArchive4NodeEEC2ISt10_List_nodeIS2_EEERKSaIT_E
0x0009aff0	37	_ZNSaIPN5L6UUE12ImageArchive4NodeEED1Ev
0x0009aff0	37	_ZNSaIPN5L6UUE12ImageArchive4NodeEED2Ev
0x0009b846	37	_ZNSaIPN5L6UUE12ImageArchive5ImageEEC1ISt10_List_nodeIS2_EEERKSaIT_E
0x0009b846	37	_ZNSaIPN5L6UUE12ImageArchive5ImageEEC2ISt10_List_nodeIS2_EEERKSaIT_E
0x0009aee4	37	_ZNSaIPN5L6UUE12ImageArchive5ImageEED1Ev
0x0009aee4	37	_ZNSaIPN5L6UUE12ImageArchive5ImageEED2Ev
0x00087caa	37	_ZNSaIPPN4Json5ValueEEC1IS1_EERKSaIT_E
0x00087caa	37	_ZNSaIPPN4Json5ValueEEC2IS1_EERKSaIT_E
0x00087ae8	37	_ZNSaIPPN4Json5ValueEED1Ev
0x00087ae8	37	_ZNSaIPPN4Json5ValueEED2Ev
0x0011a088	44	_ZNSaISsEC1ERKS_
0x0010a906	37	_ZNSaISsEC1Ev
0x0011a088	44	_ZNSaISsEC2ERKS_
0x0010a906	37	_ZNSaISsEC2Ev
0x000876ba	37	_ZNSaISsED1Ev
0x000876ba	37	_ZNSaISsED2Ev
0x0009d140	37	_ZNSaISt10_List_nodeIN5L6UUE12UpdateEngine9ImageInfoEEEC1Ev
0x0009d140	37	_ZNSaISt10_List_nodeIN5L6UUE12UpdateEngine9ImageInfoEEEC2Ev
0x0009cd42	37	_ZNSaISt10_List_nodeIN5L6UUE12UpdateEngine9ImageInfoEEED1Ev
0x0009cd42	37	_ZNSaISt10_List_nodeIN5L6UUE12UpdateEngine9ImageInfoEEED2Ev
0x0009b898	37	_ZNSaISt10_List_nodeIPN5L6UUE12ImageArchive4NodeEEEC1Ev
0x0009b898	37	_ZNSaISt10_List_nodeIPN5L6UUE12ImageArchive4NodeEEEC2Ev
0x0009a730	37	_ZNSaISt10_List_nodeIPN5L6UUE12ImageArchive4NodeEEED1Ev
0x0009a730	37	_ZNSaISt10_List_nodeIPN5L6UUE12ImageArchive4NodeEEED2Ev
0x0009c078	37	_ZNSaISt10_List_nodeIPN5L6UUE12ImageArchive5ImageEEEC1Ev
0x0009c078	37	_ZNSaISt10_List_nodeIPN5L6UUE12ImageArchive5ImageEEEC2Ev
0x0009a5e2	37	_ZNSaISt10_List_nodeIPN5L6UUE12ImageArchive5ImageEEED1Ev
0x0009a5e2	37	_ZNSaISt10_List_nodeIPN5L6UUE12ImageArchive5ImageEEED2Ev
0x00119be2	44	_ZNSaISt13_Rb_tree_nodeISt4pairIKN4Json5Value8CZStringES2_EEEC1ERKS7_
0x00119b8a	37	_ZNSaISt13_Rb_tree_nodeISt4pairIKN4Json5Value8CZStringES2_EEEC1Ev
0x00119be2	44	_ZNSaISt13_Rb_tree_nodeISt4pairIKN4Json5Value8CZStringES2_EEEC2ERKS7_
0x00119b8a	37	_ZNSaISt13_Rb_tree_nodeISt4pairIKN4Json5Value8CZStringES2_EEEC2Ev
0x00117760	37	_ZNSaISt13_Rb_tree_nodeISt4pairIKN4Json5Value8CZStringES2_EEED1Ev
0x00117760	37	_ZNSaISt13_Rb_tree_nodeISt4pairIKN4Json5Value8CZStringES2_EEED2Ev
0x000acf72	37	_ZNSaISt13_Rb_tree_nodeISt4pairIKN5L6UUE12ConstraintIDENS1_3AnyEEEEC1Ev
0x000acf72	37	_ZNSaISt13_Rb_tree_nodeISt4pairIKN5L6UUE12ConstraintIDENS1_3AnyEEEEC2Ev
0x000abd96	37	_ZNSaISt13_Rb_tree_nodeISt4pairIKN5L6UUE12ConstraintIDENS1_3AnyEEEED1Ev
0x000abd96	37	_ZNSaISt13_Rb_tree_nodeISt4pairIKN5L6UUE12ConstraintIDENS1_3AnyEEEED2Ev
0x0009ffc0	37	_ZNSaISt13_Rb_tree_nodeISt4pairIKN5L6UUE13UpdateCommandEiEEEC1Ev
0x0009ffc0	37	_ZNSaISt13_Rb_tree_nodeISt4pairIKN5L6UUE13UpdateCommandEiEEEC2Ev
0x0009f3f0	37	_ZNSaISt13_Rb_tree_nodeISt4pairIKN5L6UUE13UpdateCommandEiEEED1Ev
0x0009f3f0	37	_ZNSaISt13_Rb_tree_nodeISt4pairIKN5L6UUE13UpdateCommandEiEEED2Ev
0x000acf1a	37	_ZNSaISt13_Rb_tree_nodeISt4pairIKN5L6UUE13UpdateParamIDENS1_3AnyEEEEC1Ev
0x000acf1a	37	_ZNSaISt13_Rb_tree_nodeISt4pairIKN5L6UUE13UpdateParamIDENS1_3AnyEEEEC2Ev
0x000abd4a	37	_ZNSaISt13_Rb_tree_nodeISt4pairIKN5L6UUE13UpdateParamIDENS1_3AnyEEEED1Ev
0x000abd4a	37	_ZNSaISt13_Rb_tree_nodeISt4pairIKN5L6UUE13UpdateParamIDENS1_3AnyEEEED2Ev
0x000ace24	37	_ZNSaISt13_Rb_tree_nodeISt4pairIKN5L6UUE8DevCapIDEbEEEC1Ev
0x000ace24	37	_ZNSaISt13_Rb_tree_nodeISt4pairIKN5L6UUE8DevCapIDEbEEEC2Ev
0x000abada	37	_ZNSaISt13_Rb_tree_nodeISt4pairIKN5L6UUE8DevCapIDEbEEED1Ev
0x000abada	37	_ZNSaISt13_Rb_tree_nodeISt4pairIKN5L6UUE8DevCapIDEbEEED2Ev
0x000ace7c	37	_ZNSaISt13_Rb_tree_nodeISt4pairIKN5L6UUE9DevPropIDENS1_3AnyEEEEC1Ev
0x000ace7c	37	_ZNSaISt13_Rb_tree_nodeISt4pairIKN5L6UUE9DevPropIDENS1_3AnyEEEEC2Ev
0x000abb26	37	_ZNSaISt13_Rb_tree_nodeISt4pairIKN5L6UUE9DevPropIDENS1_3AnyEEEED1Ev
0x000abb26	37	_ZNSaISt13_Rb_tree_nodeISt4pairIKN5L6UUE9DevPropIDENS1_3AnyEEEED2Ev
0x000ad6e6	44	_ZNSaISt13_Rb_tree_nodeISt4pairIKN5L6UUE9ImgMetaIDENS1_3AnyEEEEC1ERKS7_
0x000acfca	37	_ZNSaISt13_Rb_tree_nodeISt4pairIKN5L6UUE9ImgMetaIDENS1_3AnyEEEEC1Ev
0x000ad6e6	44	_ZNSaISt13_Rb_tree_nodeISt4pairIKN5L6UUE9ImgMetaIDENS1_3AnyEEEEC2ERKS7_
0x000acfca	37	_ZNSaISt13_Rb_tree_nodeISt4pairIKN5L6UUE9ImgMetaIDENS1_3AnyEEEEC2Ev
0x000abde2	37	_ZNSaISt13_Rb_tree_nodeISt4pairIKN5L6UUE9ImgMetaIDENS1_3AnyEEEED1Ev
0x000abde2	37	_ZNSaISt13_Rb_tree_nodeISt4pairIKN5L6UUE9ImgMetaIDENS1_3AnyEEEED2Ev
0x000acd12	37	_ZNSaISt13_Rb_tree_nodeISt4pairIKjN5L6UUE9ImageInfoEEEEC1Ev
0x000acd12	37	_ZNSaISt13_Rb_tree_nodeISt4pairIKjN5L6UUE9ImageInfoEEEEC2Ev
0x000aba1a	37	_ZNSaISt13_Rb_tree_nodeISt4pairIKjN5L6UUE9ImageInfoEEEED1Ev
0x000aba1a	37	_ZNSaISt13_Rb_tree_nodeISt4pairIKjN5L6UUE9ImageInfoEEEED2Ev
0x0009d6c6	44	_ZNSaISt13_Rb_tree_nodeISt4pairIKjjEEEC1ERKS4_
0x0009bf78	37	_ZNSaISt13_Rb_tree_nodeISt4pairIKjjEEEC1Ev
0x0009d6c6	44	_ZNSaISt13_Rb_tree_nodeISt4pairIKjjEEEC2ERKS4_
0x0009bf78	37	_ZNSaISt13_Rb_tree_nodeISt4pairIKjjEEEC2Ev
0x0009adf2	37	_ZNSaISt13_Rb_tree_nodeISt4pairIKjjEEED1Ev
0x0009adf2	37	_ZNSaISt13_Rb_tree_nodeISt4pairIKjjEEED2Ev
0x0011a4c4	37	_ZNSaISt4pairIKN4Json5Value8CZStringES1_EEC1ISt13_Rb_tree_nodeIS4_EEERKSaIT_E
0x0011a4c4	37	_ZNSaISt4pairIKN4Json5Value8CZStringES1_EEC2ISt13_Rb_tree_nodeIS4_EEERKSaIT_E
0x00119ca6	37	_ZNSaISt4pairIKN4Json5Value8CZStringES1_EED1Ev
0x00119ca6	37	_ZNSaISt4pairIKN4Json5Value8CZStringES1_EED2Ev
0x000a8560	37	_ZNSaISt4pairIKN5L6UUE12ConstraintIDENS0_3AnyEEEC1ISt13_Rb_tree_nodeIS4_EEERKSaIT_E
0x000a8560	37	_ZNSaISt4pairIKN5L6UUE12ConstraintIDENS0_3AnyEEEC2ISt13_Rb_tree_nodeIS4_EEERKSaIT_E
0x000a805e	37	_ZNSaISt4pairIKN5L6UUE12ConstraintIDENS0_3AnyEEED1Ev
0x000a805e	37	_ZNSaISt4pairIKN5L6UUE12ConstraintIDENS0_3AnyEEED2Ev
0x000a0596	37	_ZNSaISt4pairIKN5L6UUE13UpdateCommandEiEEC1ISt13_Rb_tree_nodeIS3_EEERKSaIT_E
0x000a0596	37	_ZNSaISt4pairIKN5L6UUE13UpdateCommandEiEEC2ISt13_Rb_tree_nodeIS3_EEERKSaIT_E
0x000a0052	37	_ZNSaISt4pairIKN5L6UUE13UpdateCommandEiEED1Ev
0x000a0052	37	_ZNSaISt4pairIKN5L6UUE13UpdateCommandEiEED2Ev
0x000a8482	37	_ZNSaISt4pairIKN5L6UUE13UpdateParamIDENS0_3AnyEEEC1ISt13_Rb_tree_nodeIS4_EEERKSaIT_E
0x000a8482	37	_ZNSaISt4pairIKN5L6UUE13UpdateParamIDENS0_3AnyEEEC2ISt13_Rb_tree_nodeIS4_EEERKSaIT_E
0x000a7e5e	37	_ZNSaISt4pairIKN5L6UUE13UpdateParamIDENS0_3AnyEEED1Ev
0x000a7e5e	37	_ZNSaISt4pairIKN5L6UUE13UpdateParamIDENS0_3AnyEEED2Ev
0x000a81ec	37	_ZNSaISt4pairIKN5L6UUE8DevCapIDEbEEC1ISt13_Rb_tree_nodeIS3_EEERKSaIT_E
0x000a81ec	37	_ZNSaISt4pairIKN5L6UUE8DevCapIDEbEEC2ISt13_Rb_tree_nodeIS3_EEERKSaIT_E
0x000a785e	37	_ZNSaISt4pairIKN5L6UUE8DevCapIDEbEED1Ev
0x000a785e	37	_ZNSaISt4pairIKN5L6UUE8DevCapIDEbEED2Ev
0x000a82c6	37	_ZNSaISt4pairIKN5L6UUE9DevPropIDENS0_3AnyEEEC1ISt13_Rb_tree_nodeIS4_EEERKSaIT_E
0x000a82c6	37	_ZNSaISt4pairIKN5L6UUE9DevPropIDENS0_3AnyEEEC2ISt13_Rb_tree_nodeIS4_EEERKSaIT_E
0x000a7a5e	37	_ZNSaISt4pairIKN5L6UUE9DevPropIDENS0_3AnyEEED1Ev
0x000a7a5e	37	_ZNSaISt4pairIKN5L6UUE9DevPropIDENS0_3AnyEEED2Ev
0x000a83a4	37	_ZNSaISt4pairIKN5L6UUE9ImgMetaIDENS0_3AnyEEEC1ISt13_Rb_tree_nodeIS4_EEERKSaIT_E
0x000a83a4	37	_ZNSaISt4pairIKN5L6UUE9ImgMetaIDENS0_3AnyEEEC2ISt13_Rb_tree_nodeIS4_EEERKSaIT_E
0x000a7c5e	37	_ZNSaISt4pairIKN5L6UUE9ImgMetaIDENS0_3AnyEEED1Ev
0x000a7c5e	37	_ZNSaISt4pairIKN5L6UUE9ImgMetaIDENS0_3AnyEEED2Ev
0x000ad4fc	37	_ZNSaISt4pairIKjN5L6UUE9ImageInfoEEEC1ISt13_Rb_tree_nodeIS3_EEERKSaIT_E
0x000ad4fc	37	_ZNSaISt4pairIKjN5L6UUE9ImageInfoEEEC2ISt13_Rb_tree_nodeIS3_EEERKSaIT_E
0x000acda4	37	_ZNSaISt4pairIKjN5L6UUE9ImageInfoEEED1Ev
0x000acda4	37	_ZNSaISt4pairIKjN5L6UUE9ImageInfoEEED2Ev
0x0009c254	37	_ZNSaISt4pairIKjjEEC1ISt13_Rb_tree_nodeIS1_EEERKSaIT_E
0x0009c254	37	_ZNSaISt4pairIKjjEEC2ISt13_Rb_tree_nodeIS1_EEERKSaIT_E
0x0009beca	37	_ZNSaISt4pairIKjjEED1Ev
0x0009beca	37	_ZNSaISt4pairIKjjEED2Ev
0x0010e466	55	_ZNSs12_S_constructIPKcEEPcT_S3_RKSaIcE
0x0010ee64	55	_ZNSs16_S_construct_auxIPKcEEPcT_S3_RKSaIcESt12__false_type
0x0011a995	8	_ZNSt10_Iter_baseIPN4Json12PathArgumentELb0EE7_S_baseES2_
0x00112374	8	_ZNSt10_Iter_baseIPN4Json6Reader9ErrorInfoELb0EE7_S_baseES3_
0x0011a8eb	8	_ZNSt10_Iter_baseIPPKN4Json12PathArgumentELb0EE7_S_baseES4_
0x001119c6	8	_ZNSt10_Iter_baseIPPN4Json6Reader9ErrorInfoELb0EE7_S_baseES4_
0x00112057	8	_ZNSt10_Iter_baseIPPPN4Json5ValueELb0EE7_S_baseES4_
0x0010aadf	8	_ZNSt10_Iter_baseIPSsLb0EE7_S_baseES0_
0x00111f28	36	_ZNSt10_Iter_baseISt15_Deque_iteratorIPN4Json5ValueERKS3_PS4_ELb0EE7_S_baseES7_
0x001123cf	49	_ZNSt10_Iter_baseISt15_Deque_iteratorIPN4Json5ValueERS3_PS3_ELb0EE7_S_baseES6_
0x0011a515	18	_ZNSt10_Iter_baseISt23_Rb_tree_const_iteratorISt4pairIKN4Json5Value8CZStringES3_EELb0EE7_S_baseES7_
0x0009cf12	56	_ZNSt10_List_baseIN5L6UUE12UpdateEngine9ImageInfoESaIS2_EE10_List_implC1Ev
0x0009cf12	56	_ZNSt10_List_baseIN5L6UUE12UpdateEngine9ImageInfoESaIS2_EE10_List_implC2Ev
0x0009cb28	37	_ZNSt10_List_baseIN5L6UUE12UpdateEngine9ImageInfoESaIS2_EE10_List_implD1Ev
0x0009cb28	37	_ZNSt10_List_baseIN5L6UUE12UpdateEngine9ImageInfoESaIS2_EE10_List_implD2Ev
0x0009d1c0	53	_ZNSt10_List_baseIN5L6UUE12UpdateEngine9ImageInfoESaIS2_EE11_M_get_nodeEv
0x0009cff4	52	_ZNSt10_List_baseIN5L6UUE12UpdateEngine9ImageInfoESaIS2_EE11_M_put_nodeEPSt10_List_nodeIS2_E
0x0009cf4a	22	_ZNSt10_List_baseIN5L6UUE12UpdateEngine9ImageInfoESaIS2_EE7_M_initEv
0x0009cd68	171	_ZNSt10_List_baseIN5L6UUE12UpdateEngine9ImageInfoESaIS2_EE8_M_clearEv
0x0009ccf6	75	_ZNSt10_List_baseIN5L6UUE12UpdateEngine9ImageInfoESaIS2_EEC1Ev
0x0009ccf6	75	_ZNSt10_List_baseIN5L6UUE12UpdateEngine9ImageInfoESaIS2_EEC2Ev
0x0009cb4e	73	_ZNSt10_List_baseIN5L6UUE12UpdateEngine9ImageInfoESaIS2_EED1Ev
0x0009cb4e	73	_ZNSt10_List_baseIN5L6UUE12UpdateEngine9ImageInfoESaIS2_EED2Ev
0x0009af62	56	_ZNSt10_List_baseIPN5L6UUE12ImageArchive4NodeESaIS3_EE10_List_implC1Ev
0x0009af62	56	_ZNSt10_List_baseIPN5L6UUE12ImageArchive4NodeESaIS3_EE10_List_implC2Ev
0x00099d94	37	_ZNSt10_List_baseIPN5L6UUE12ImageArchive4NodeESaIS3_EE10_List_implD1Ev
0x00099d94	37	_ZNSt10_List_baseIPN5L6UUE12ImageArchive4NodeESaIS3_EE10_List_implD2Ev
0x0009c09e	53	_ZNSt10_List_baseIPN5L6UUE12ImageArchive4NodeESaIS3_EE11_M_get_nodeEv
0x0009b024	52	_ZNSt10_List_baseIPN5L6UUE12ImageArchive4NodeESaIS3_EE11_M_put_nodeEPSt10_List_nodeIS3_E
0x0009af9a	22	_ZNSt10_List_baseIPN5L6UUE12ImageArchive4NodeESaIS3_EE7_M_initEv
0x0009a756	171	_ZNSt10_List_baseIPN5L6UUE12ImageArchive4NodeESaIS3_EE8_M_clearEv
0x0009a6e4	75	_ZNSt10_List_baseIPN5L6UUE12ImageArchive4NodeESaIS3_EEC1Ev
0x0009a6e4	75	_ZNSt10_List_baseIPN5L6UUE12ImageArchive4NodeESaIS3_EEC2Ev
0x00099dba	73	_ZNSt10_List_baseIPN5L6UUE12ImageArchive4NodeESaIS3_EED1Ev
0x00099dba	73	_ZNSt10_List_baseIPN5L6UUE12ImageArchive4NodeESaIS3_EED2Ev
0x0009b97c	56	_ZNSt10_List_baseIPN5L6UUE12ImageArchive5ImageESaIS3_EE10_List_implC1Ev
0x0009b97c	56	_ZNSt10_List_baseIPN5L6UUE12ImageArchive5ImageESaIS3_EE10_List_implC2Ev
0x00099be8	37	_ZNSt10_List_baseIPN5L6UUE12ImageArchive5ImageESaIS3_EE10_List_implD1Ev
0x00099be8	37	_ZNSt10_List_baseIPN5L6UUE12ImageArchive5ImageESaIS3_EE10_List_implD2Ev
0x0009bfd0	53	_ZNSt10_List_baseIPN5L6UUE12ImageArchive5ImageESaIS3_EE11_M_get_nodeEv
0x0009af18	52	_ZNSt10_List_baseIPN5L6UUE12ImageArchive5ImageESaIS3_EE11_M_put_nodeEPSt10_List_nodeIS3_E
0x0009af4c	22	_ZNSt10_List_baseIPN5L6UUE12ImageArchive5ImageESaIS3_EE7_M_initEv
0x0009a608	171	_ZNSt10_List_baseIPN5L6UUE12ImageArchive5ImageESaIS3_EE8_M_clearEv
0x0009b114	48	_ZNSt10_List_baseIPN5L6UUE12ImageArchive5ImageESaIS3_EEC1Ev
0x0009b114	48	_ZNSt10_List_baseIPN5L6UUE12ImageArchive5ImageESaIS3_EEC2Ev
0x00099c0e	73	_ZNSt10_List_baseIPN5L6UUE12ImageArchive5ImageESaIS3_EED1Ev
0x00099c0e	73	_ZNSt10_List_baseIPN5L6UUE12ImageArchive5ImageESaIS3_EED2Ev
0x0016a7b0	56	_ZNSt10bad_typeidD0Ev
0x0016a780	45	_ZNSt10bad_typeidD1Ev
0x0016a780	45	_ZNSt10bad_typeidD2Ev
0x0010eafc	111	_ZNSt11_Deque_baseIN4Json6Reader9ErrorInfoESaIS2_EE11_Deque_implC1Ev
0x0010eafc	111	_ZNSt11_Deque_baseIN4Json6Reader9ErrorInfoESaIS2_EE11_Deque_implC2Ev
0x000874f8	37	_ZNSt11_Deque_baseIN4Json6Reader9ErrorInfoESaIS2_EE11_Deque_implD1Ev
0x000874f8	37	_ZNSt11_Deque_baseIN4Json6Reader9ErrorInfoESaIS2_EE11_Deque_implD2Ev
0x0010f692	113	_ZNSt11_Deque_baseIN4Json6Reader9ErrorInfoESaIS2_EE15_M_allocate_mapEj
0x0010f704	128	_ZNSt11_Deque_baseIN4Json6Reader9ErrorInfoESaIS2_EE15_M_create_nodesEPPS2_S6_
0x0010ef00	63	_ZNSt11_Deque_baseIN4Json6Reader9ErrorInfoESaIS2_EE16_M_allocate_nodeEv
0x00087846	71	_ZNSt11_Deque_baseIN4Json6Reader9ErrorInfoESaIS2_EE16_M_destroy_nodesEPPS2_S6_
0x0008788e	108	_ZNSt11_Deque_baseIN4Json6Reader9ErrorInfoESaIS2_EE17_M_deallocate_mapEPPS2_j
0x0010eb6c	376	_ZNSt11_Deque_baseIN4Json6Reader9ErrorInfoESaIS2_EE17_M_initialize_mapEj
0x00087b3a	62	_ZNSt11_Deque_baseIN4Json6Reader9ErrorInfoESaIS2_EE18_M_deallocate_nodeEPS2_
0x0008760e	8	_ZNSt11_Deque_baseIN4Json6Reader9ErrorInfoESaIS2_EE19_M_get_Tp_allocatorEv
0x0010e268	83	_ZNSt11_Deque_baseIN4Json6Reader9ErrorInfoESaIS2_EEC1Ev
0x0010e268	83	_ZNSt11_Deque_baseIN4Json6Reader9ErrorInfoESaIS2_EEC2Ev
0x0008751e	135	_ZNSt11_Deque_baseIN4Json6Reader9ErrorInfoESaIS2_EED1Ev
0x0008751e	135	_ZNSt11_Deque_baseIN4Json6Reader9ErrorInfoESaIS2_EED2Ev
0x0010f534	91	_ZNSt11_Deque_baseIPN4Json5ValueESaIS2_EE11_Deque_implC1ERKS3_
0x0010e7a8	111	_ZNSt11_Deque_baseIPN4Json5ValueESaIS2_EE11_Deque_implC1Ev
0x0010f534	91	_ZNSt11_Deque_baseIPN4Json5ValueESaIS2_EE11_Deque_implC2ERKS3_
0x0010e7a8	111	_ZNSt11_Deque_baseIPN4Json5ValueESaIS2_EE11_Deque_implC2Ev
0x0008739c	37	_ZNSt11_Deque_baseIPN4Json5ValueESaIS2_EE11_Deque_implD1Ev
0x0008739c	37	_ZNSt11_Deque_baseIPN4Json5ValueESaIS2_EE11_Deque_implD2Ev
0x0010f39a	113	_ZNSt11_Deque_baseIPN4Json5ValueESaIS2_EE15_M_allocate_mapEj
0x0010f40c	128	_ZNSt11_Deque_baseIPN4Json5ValueESaIS2_EE15_M_create_nodesEPPS2_S6_
0x0010f7e8	63	_ZNSt11_Deque_baseIPN4Json5ValueESaIS2_EE16_M_allocate_nodeEv
0x0008776c	71	_ZNSt11_Deque_baseIPN4Json5ValueESaIS2_EE16_M_destroy_nodesEPPS2_S6_
0x000877b4	108	_ZNSt11_Deque_baseIPN4Json5ValueESaIS2_EE17_M_deallocate_mapEPPS2_j
0x0010e818	371	_ZNSt11_Deque_baseIPN4Json5ValueESaIS2_EE17_M_initialize_mapEj
0x00087a70	62	_ZNSt11_Deque_baseIPN4Json5ValueESaIS2_EE18_M_deallocate_nodeEPS2_
0x000874b2	8	_ZNSt11_Deque_baseIPN4Json5ValueESaIS2_EE19_M_get_Tp_allocatorEv
0x0010e9be	89	_ZNSt11_Deque_baseIPN4Json5ValueESaIS2_EEC1ERKS3_j
0x0010e106	83	_ZNSt11_Deque_baseIPN4Json5ValueESaIS2_EEC1Ev
0x0010e9be	89	_ZNSt11_Deque_baseIPN4Json5ValueESaIS2_EEC2ERKS3_j
0x0010e106	83	_ZNSt11_Deque_baseIPN4Json5ValueESaIS2_EEC2Ev
0x000873c2	135	_ZNSt11_Deque_baseIPN4Json5ValueESaIS2_EED1Ev
0x000873c2	135	_ZNSt11_Deque_baseIPN4Json5ValueESaIS2_EED2Ev
0x001126e0	96	_ZNSt11__copy_moveILb0ELb0ESt26random_access_iterator_tagE8__copy_mIPN4Json6Reader9ErrorInfoES6_EET0_T_S8_S7_
0x00112400	139	_ZNSt11__copy_moveILb0ELb0ESt26random_access_iterator_tagE8__copy_mISt15_Deque_iteratorIPN4Json5ValueERKS6_PS7_ES3_IS6_RS6_PS6_EEET0_T_SF_SE_
0x0011ae51	87	_ZNSt11__copy_moveILb0ELb1ESt26random_access_iterator_tagE8__copy_mIPKN4Json12PathArgumentEEEPT_PKS7_SA_S8_
0x001120f2	87	_ZNSt11__copy_moveILb0ELb1ESt26random_access_iterator_tagE8__copy_mIPN4Json6Reader9ErrorInfoEEEPT_PKS7_SA_S8_
0x0011248b	87	_ZNSt11__copy_moveILb0ELb1ESt26random_access_iterator_tagE8__copy_mIPPN4Json5ValueEEEPT_PKS7_SA_S8_
0x0010633c	46	_ZNSt11char_traitsIcE6lengthEPKc
0x0011a1a5	64	_ZNSt12_Destroy_auxILb0EE9__destroyIPN4Json12PathArgumentEEEvT_S5_
0x00087d67	64	_ZNSt12_Destroy_auxILb0EE9__destroyIPN4Json6Reader9ErrorInfoEEEvT_S6_
0x00087a29	64	_ZNSt12_Destroy_auxILb0EE9__destroyIPSsEEvT_S3_
0x001121c2	88	_ZNSt12_Destroy_auxILb0EE9__destroyISt15_Deque_iteratorIN4Json6Reader9ErrorInfoERS5_PS5_EEEvT_S9_
0x0011a237	5	_ZNSt12_Destroy_auxILb1EE9__destroyIPPKN4Json12PathArgumentEEEvT_S7_
0x00119ad8	65	_ZNSt12_Vector_baseIN4Json12PathArgumentESaIS1_EE11_M_allocateEj
0x001195a4	66	_ZNSt12_Vector_baseIN4Json12PathArgumentESaIS1_EE12_Vector_implC1Ev
0x001195a4	66	_ZNSt12_Vector_baseIN4Json12PathArgumentESaIS1_EE12_Vector_implC2Ev
0x001180be	37	_ZNSt12_Vector_baseIN4Json12PathArgumentESaIS1_EE12_Vector_implD1Ev
0x001180be	37	_ZNSt12_Vector_baseIN4Json12PathArgumentESaIS1_EE12_Vector_implD2Ev
0x0011960c	57	_ZNSt12_Vector_baseIN4Json12PathArgumentESaIS1_EE13_M_deallocateEPS1_j
0x0011817e	8	_ZNSt12_Vector_baseIN4Json12PathArgumentESaIS1_EE19_M_get_Tp_allocatorEv
0x001180e4	37	_ZNSt12_Vector_baseIN4Json12PathArgumentESaIS1_EEC1Ev
0x001180e4	37	_ZNSt12_Vector_baseIN4Json12PathArgumentESaIS1_EEC2Ev
0x0011810a	116	_ZNSt12_Vector_baseIN4Json12PathArgumentESaIS1_EED1Ev
0x0011810a	116	_ZNSt12_Vector_baseIN4Json12PathArgumentESaIS1_EED2Ev
0x001198c0	65	_ZNSt12_Vector_baseIPKN4Json12PathArgumentESaIS3_EE11_M_allocateEj
0x00119672	66	_ZNSt12_Vector_baseIPKN4Json12PathArgumentESaIS3_EE12_Vector_implC1Ev
0x00119672	66	_ZNSt12_Vector_baseIPKN4Json12PathArgumentESaIS3_EE12_Vector_implC2Ev
0x001181b2	37	_ZNSt12_Vector_baseIPKN4Json12PathArgumentESaIS3_EE12_Vector_implD1Ev
0x001181b2	37	_ZNSt12_Vector_baseIPKN4Json12PathArgumentESaIS3_EE12_Vector_implD2Ev
0x001196da	57	_ZNSt12_Vector_baseIPKN4Json12PathArgumentESaIS3_EE13_M_deallocateEPS3_j
0x0011826c	8	_ZNSt12_Vector_baseIPKN4Json12PathArgumentESaIS3_EE19_M_get_Tp_allocatorEv
0x001181d8	37	_ZNSt12_Vector_baseIPKN4Json12PathArgumentESaIS3_EEC1Ev
0x001181d8	37	_ZNSt12_Vector_baseIPKN4Json12PathArgumentESaIS3_EEC2Ev
0x001181fe	110	_ZNSt12_Vector_baseIPKN4Json12PathArgumentESaIS3_EED1Ev
0x001181fe	110	_ZNSt12_Vector_baseIPKN4Json12PathArgumentESaIS3_EED2Ev
0x0010a650	65	_ZNSt12_Vector_baseISsSaISsEE11_M_allocateEj
0x00119528	73	_ZNSt12_Vector_baseISsSaISsEE12_Vector_implC1ERKS0_
0x0010a6a2	66	_ZNSt12_Vector_baseISsSaISsEE12_Vector_implC1Ev
0x00119528	73	_ZNSt12_Vector_baseISsSaISsEE12_Vector_implC2ERKS0_
0x0010a6a2	66	_ZNSt12_Vector_baseISsSaISsEE12_Vector_implC2Ev
0x000872d4	37	_ZNSt12_Vector_baseISsSaISsEE12_Vector_implD1Ev
0x000872d4	37	_ZNSt12_Vector_baseISsSaISsEE12_Vector_implD2Ev
0x000876e0	57	_ZNSt12_Vector_baseISsSaISsEE13_M_deallocateEPSsj
0x00087368	8	_ZNSt12_Vector_baseISsSaISsEE19_M_get_Tp_allocatorEv
0x00117fda	124	_ZNSt12_Vector_baseISsSaISsEEC1EjRKS0_
0x0010a184	37	_ZNSt12_Vector_baseISsSaISsEEC1Ev
0x00117fda	124	_ZNSt12_Vector_baseISsSaISsEEC2EjRKS0_
0x0010a184	37	_ZNSt12_Vector_baseISsSaISsEEC2Ev
0x000872fa	110	_ZNSt12_Vector_baseISsSaISsEED1Ev
0x000872fa	110	_ZNSt12_Vector_baseISsSaISsEED2Ev
0x0016b4f0	56	_ZNSt13bad_exceptionD0Ev
0x0016b3c0	45	_ZNSt13bad_exceptionD1Ev
0x0016b3c0	45	_ZNSt13bad_exceptionD2Ev
0x0009cf04	13	_ZNSt14_List_iteratorIN5L6UUE12UpdateEngine9ImageInfoEEC1EPNSt8__detail15_List_node_baseE
0x0009cc36	14	_ZNSt14_List_iteratorIN5L6UUE12UpdateEngine9ImageInfoEEC1Ev
0x0009cf04	13	_ZNSt14_List_iteratorIN5L6UUE12UpdateEngine9ImageInfoEEC2EPNSt8__detail15_List_node_baseE
0x0009cc36	14	_ZNSt14_List_iteratorIN5L6UUE12UpdateEngine9ImageInfoEEC2Ev
0x0009ccbe	20	_ZNSt14_List_iteratorIN5L6UUE12UpdateEngine9ImageInfoEEppEv
0x0009b058	13	_ZNSt14_List_iteratorIPN5L6UUE12ImageArchive4NodeEEC1EPNSt8__detail15_List_node_baseE
0x0009a802	14	_ZNSt14_List_iteratorIPN5L6UUE12ImageArchive4NodeEEC1Ev
0x0009b058	13	_ZNSt14_List_iteratorIPN5L6UUE12ImageArchive4NodeEEC2EPNSt8__detail15_List_node_baseE
0x0009a802	14	_ZNSt14_List_iteratorIPN5L6UUE12ImageArchive4NodeEEC2Ev
0x0009a88a	20	_ZNSt14_List_iteratorIPN5L6UUE12ImageArchive4NodeEEppEv
0x0009adbe	13	_ZNSt14_List_iteratorIPN5L6UUE12ImageArchive5ImageEEC1EPNSt8__detail15_List_node_baseE
0x0009a3b0	14	_ZNSt14_List_iteratorIPN5L6UUE12ImageArchive5ImageEEC1Ev
0x0009adbe	13	_ZNSt14_List_iteratorIPN5L6UUE12ImageArchive5ImageEEC2EPNSt8__detail15_List_node_baseE
0x0009a3b0	14	_ZNSt14_List_iteratorIPN5L6UUE12ImageArchive5ImageEEC2Ev
0x0009a48e	20	_ZNSt14_List_iteratorIPN5L6UUE12ImageArchive5ImageEEppEv
0x0010e760	72	_ZNSt15_Deque_iteratorIN4Json6Reader9ErrorInfoERKS2_PS3_E11_M_set_nodeEPPS2_
0x0010f322	38	_ZNSt15_Deque_iteratorIN4Json6Reader9ErrorInfoERKS2_PS3_E14_S_buffer_sizeEv
0x0010e718	51	_ZNSt15_Deque_iteratorIN4Json6Reader9ErrorInfoERKS2_PS3_EC1ERKS_IS2_RS2_PS2_E
0x0010e718	51	_ZNSt15_Deque_iteratorIN4Json6Reader9ErrorInfoERKS2_PS3_EC2ERKS_IS2_RS2_PS2_E
0x00111efa	46	_ZNSt15_Deque_iteratorIN4Json6Reader9ErrorInfoERKS2_PS3_EmIEi
0x00111cf6	258	_ZNSt15_Deque_iteratorIN4Json6Reader9ErrorInfoERKS2_PS3_EpLEi
0x0010e0a0	92	_ZNSt15_Deque_iteratorIN4Json6Reader9ErrorInfoERKS2_PS3_EppEv
0x0010ef40	72	_ZNSt15_Deque_iteratorIN4Json6Reader9ErrorInfoERS2_PS2_E11_M_set_nodeEPS4_
0x0010ef88	38	_ZNSt15_Deque_iteratorIN4Json6Reader9ErrorInfoERS2_PS2_E14_S_buffer_sizeEv
0x00087616	51	_ZNSt15_Deque_iteratorIN4Json6Reader9ErrorInfoERS2_PS2_EC1ERKS5_
0x0010f666	44	_ZNSt15_Deque_iteratorIN4Json6Reader9ErrorInfoERS2_PS2_EC1Ev
0x00087616	51	_ZNSt15_Deque_iteratorIN4Json6Reader9ErrorInfoERS2_PS2_EC2ERKS5_
0x0010f666	44	_ZNSt15_Deque_iteratorIN4Json6Reader9ErrorInfoERS2_PS2_EC2Ev
0x0011133e	46	_ZNSt15_Deque_iteratorIN4Json6Reader9ErrorInfoERS2_PS2_EmIEi
0x0010f1ba	258	_ZNSt15_Deque_iteratorIN4Json6Reader9ErrorInfoERS2_PS2_EpLEi
0x00111a90	92	_ZNSt15_Deque_iteratorIN4Json6Reader9ErrorInfoERS2_PS2_EppEv
0x001127c6	63	_ZNSt15_Deque_iteratorIPN4Json5ValueERKS2_PS3_E11_M_set_nodeEPPS2_
0x001127a0	38	_ZNSt15_Deque_iteratorIPN4Json5ValueERKS2_PS3_E14_S_buffer_sizeEv
0x0010f590	51	_ZNSt15_Deque_iteratorIPN4Json5ValueERKS2_PS3_EC1ERKS_IS2_RS2_PS2_E
0x0010f590	51	_ZNSt15_Deque_iteratorIPN4Json5ValueERKS2_PS3_EC2ERKS_IS2_RS2_PS2_E
0x00112628	92	_ZNSt15_Deque_iteratorIPN4Json5ValueERKS2_PS3_EppEv
0x0010f48c	63	_ZNSt15_Deque_iteratorIPN4Json5ValueERS2_PS2_E11_M_set_nodeEPS4_
0x0011046e	38	_ZNSt15_Deque_iteratorIPN4Json5ValueERS2_PS2_E14_S_buffer_sizeEv
0x000874ba	51	_ZNSt15_Deque_iteratorIPN4Json5ValueERS2_PS2_EC1ERKS5_
0x0010f36e	44	_ZNSt15_Deque_iteratorIPN4Json5ValueERS2_PS2_EC1Ev
0x000874ba	51	_ZNSt15_Deque_iteratorIPN4Json5ValueERS2_PS2_EC2ERKS5_
0x0010f36e	44	_ZNSt15_Deque_iteratorIPN4Json5ValueERS2_PS2_EC2Ev
0x0010f2bc	92	_ZNSt15_Deque_iteratorIPN4Json5ValueERS2_PS2_EmmEv
0x00112684	92	_ZNSt15_Deque_iteratorIPN4Json5ValueERS2_PS2_EppEv
0x00118ed4	13	_ZNSt17_Rb_tree_iteratorISt4pairIKN4Json5Value8CZStringES2_EEC1EPSt13_Rb_tree_nodeIS5_E
0x00116c5c	14	_ZNSt17_Rb_tree_iteratorISt4pairIKN4Json5Value8CZStringES2_EEC1Ev
0x00118ed4	13	_ZNSt17_Rb_tree_iteratorISt4pairIKN4Json5Value8CZStringES2_EEC2EPSt13_Rb_tree_nodeIS5_E
0x00116c5c	14	_ZNSt17_Rb_tree_iteratorISt4pairIKN4Json5Value8CZStringES2_EEC2Ev
0x00116cc4	47	_ZNSt17_Rb_tree_iteratorISt4pairIKN4Json5Value8CZStringES2_EEmmEv
0x00116c94	47	_ZNSt17_Rb_tree_iteratorISt4pairIKN4Json5Value8CZStringES2_EEppEv
0x000a020e	13	_ZNSt17_Rb_tree_iteratorISt4pairIKN5L6UUE12ConstraintIDENS1_3AnyEEEC1EPSt13_Rb_tree_nodeIS5_E
0x0009f598	14	_ZNSt17_Rb_tree_iteratorISt4pairIKN5L6UUE12ConstraintIDENS1_3AnyEEEC1Ev
0x000a020e	13	_ZNSt17_Rb_tree_iteratorISt4pairIKN5L6UUE12ConstraintIDENS1_3AnyEEEC2EPSt13_Rb_tree_nodeIS5_E
0x0009f598	14	_ZNSt17_Rb_tree_iteratorISt4pairIKN5L6UUE12ConstraintIDENS1_3AnyEEEC2Ev
0x000a81b4	47	_ZNSt17_Rb_tree_iteratorISt4pairIKN5L6UUE12ConstraintIDENS1_3AnyEEEmmEv
0x000a3c2c	47	_ZNSt17_Rb_tree_iteratorISt4pairIKN5L6UUE12ConstraintIDENS1_3AnyEEEppEv
0x0009fa0c	13	_ZNSt17_Rb_tree_iteratorISt4pairIKN5L6UUE13UpdateCommandEiEEC1EPSt13_Rb_tree_nodeIS4_E
0x0009e77a	14	_ZNSt17_Rb_tree_iteratorISt4pairIKN5L6UUE13UpdateCommandEiEEC1Ev
0x0009fa0c	13	_ZNSt17_Rb_tree_iteratorISt4pairIKN5L6UUE13UpdateCommandEiEEC2EPSt13_Rb_tree_nodeIS4_E
0x0009e77a	14	_ZNSt17_Rb_tree_iteratorISt4pairIKN5L6UUE13UpdateCommandEiEEC2Ev
0x000a0754	47	_ZNSt17_Rb_tree_iteratorISt4pairIKN5L6UUE13UpdateCommandEiEEmmEv
0x000a5712	13	_ZNSt17_Rb_tree_iteratorISt4pairIKN5L6UUE13UpdateParamIDENS1_3AnyEEEC1EPSt13_Rb_tree_nodeIS5_E
0x000a301c	14	_ZNSt17_Rb_tree_iteratorISt4pairIKN5L6UUE13UpdateParamIDENS1_3AnyEEEC1Ev
0x000a5712	13	_ZNSt17_Rb_tree_iteratorISt4pairIKN5L6UUE13UpdateParamIDENS1_3AnyEEEC2EPSt13_Rb_tree_nodeIS5_E
0x000a301c	14	_ZNSt17_Rb_tree_iteratorISt4pairIKN5L6UUE13UpdateParamIDENS1_3AnyEEEC2Ev
0x000a7ff4	47	_ZNSt17_Rb_tree_iteratorISt4pairIKN5L6UUE13UpdateParamIDENS1_3AnyEEEmmEv
0x000a3a30	47	_ZNSt17_Rb_tree_iteratorISt4pairIKN5L6UUE13UpdateParamIDENS1_3AnyEEEppEv
0x000a47a0	13	_ZNSt17_Rb_tree_iteratorISt4pairIKN5L6UUE8DevCapIDEbEEC1EPSt13_Rb_tree_nodeIS4_E
0x000a2b9e	14	_ZNSt17_Rb_tree_iteratorISt4pairIKN5L6UUE8DevCapIDEbEEC1Ev
0x000a47a0	13	_ZNSt17_Rb_tree_iteratorISt4pairIKN5L6UUE8DevCapIDEbEEC2EPSt13_Rb_tree_nodeIS4_E
0x000a2b9e	14	_ZNSt17_Rb_tree_iteratorISt4pairIKN5L6UUE8DevCapIDEbEEC2Ev
0x000a79f4	47	_ZNSt17_Rb_tree_iteratorISt4pairIKN5L6UUE8DevCapIDEbEEmmEv
0x000a33b0	47	_ZNSt17_Rb_tree_iteratorISt4pairIKN5L6UUE8DevCapIDEbEEppEv
0x000a4cc6	13	_ZNSt17_Rb_tree_iteratorISt4pairIKN5L6UUE9DevPropIDENS1_3AnyEEEC1EPSt13_Rb_tree_nodeIS5_E
0x000a2d18	14	_ZNSt17_Rb_tree_iteratorISt4pairIKN5L6UUE9DevPropIDENS1_3AnyEEEC1Ev
0x000a4cc6	13	_ZNSt17_Rb_tree_iteratorISt4pairIKN5L6UUE9DevPropIDENS1_3AnyEEEC2EPSt13_Rb_tree_nodeIS5_E
0x000a2d18	14	_ZNSt17_Rb_tree_iteratorISt4pairIKN5L6UUE9DevPropIDENS1_3AnyEEEC2Ev
0x000a7bf4	47	_ZNSt17_Rb_tree_iteratorISt4pairIKN5L6UUE9DevPropIDENS1_3AnyEEEmmEv
0x000a35d4	47	_ZNSt17_Rb_tree_iteratorISt4pairIKN5L6UUE9DevPropIDENS1_3AnyEEEppEv
0x000a51ec	13	_ZNSt17_Rb_tree_iteratorISt4pairIKN5L6UUE9ImgMetaIDENS1_3AnyEEEC1EPSt13_Rb_tree_nodeIS5_E
0x000a2e9a	14	_ZNSt17_Rb_tree_iteratorISt4pairIKN5L6UUE9ImgMetaIDENS1_3AnyEEEC1Ev
0x000a51ec	13	_ZNSt17_Rb_tree_iteratorISt4pairIKN5L6UUE9ImgMetaIDENS1_3AnyEEEC2EPSt13_Rb_tree_nodeIS5_E
0x000a2e9a	14	_ZNSt17_Rb_tree_iteratorISt4pairIKN5L6UUE9ImgMetaIDENS1_3AnyEEEC2Ev
0x000a7df4	47	_ZNSt17_Rb_tree_iteratorISt4pairIKN5L6UUE9ImgMetaIDENS1_3AnyEEEmmEv
0x000a3802	47	_ZNSt17_Rb_tree_iteratorISt4pairIKN5L6UUE9ImgMetaIDENS1_3AnyEEEppEv
0x000ac384	13	_ZNSt17_Rb_tree_iteratorISt4pairIKjN5L6UUE9ImageInfoEEEC1EPSt13_Rb_tree_nodeIS4_E
0x000ab284	14	_ZNSt17_Rb_tree_iteratorISt4pairIKjN5L6UUE9ImageInfoEEEC1Ev
0x000ac384	13	_ZNSt17_Rb_tree_iteratorISt4pairIKjN5L6UUE9ImageInfoEEEC2EPSt13_Rb_tree_nodeIS4_E
0x000ab284	14	_ZNSt17_Rb_tree_iteratorISt4pairIKjN5L6UUE9ImageInfoEEEC2Ev
0x000ad6b0	47	_ZNSt17_Rb_tree_iteratorISt4pairIKjN5L6UUE9ImageInfoEEEmmEv
0x000ab30a	47	_ZNSt17_Rb_tree_iteratorISt4pairIKjN5L6UUE9ImageInfoEEEppEv
0x0009b186	13	_ZNSt17_Rb_tree_iteratorISt4pairIKjjEEC1EPSt13_Rb_tree_nodeIS2_E
0x0009a0f0	14	_ZNSt17_Rb_tree_iteratorISt4pairIKjjEEC1Ev
0x0009b186	13	_ZNSt17_Rb_tree_iteratorISt4pairIKjjEEC2EPSt13_Rb_tree_nodeIS2_E
0x0009a0f0	14	_ZNSt17_Rb_tree_iteratorISt4pairIKjjEEC2Ev
0x0009c21c	47	_ZNSt17_Rb_tree_iteratorISt4pairIKjjEEmmEv
0x0009a19c	47	_ZNSt17_Rb_tree_iteratorISt4pairIKjjEEppEv
0x0009c471	34	_ZNSt18_Rb_tree_node_base10_S_maximumEPS_
0x0009c44f	34	_ZNSt18_Rb_tree_node_base10_S_minimumEPS_
0x0009d0dc	13	_ZNSt20_List_const_iteratorIN5L6UUE12UpdateEngine9ImageInfoEEC1EPKNSt8__detail15_List_node_baseE
0x0009d0dc	13	_ZNSt20_List_const_iteratorIN5L6UUE12UpdateEngine9ImageInfoEEC2EPKNSt8__detail15_List_node_baseE
0x0009d30e	20	_ZNSt20_List_const_iteratorIN5L6UUE12UpdateEngine9ImageInfoEEppEv
0x0009b918	13	_ZNSt20_List_const_iteratorIPN5L6UUE12ImageArchive4NodeEEC1EPKNSt8__detail15_List_node_baseE
0x0009b918	13	_ZNSt20_List_const_iteratorIPN5L6UUE12ImageArchive4NodeEEC2EPKNSt8__detail15_List_node_baseE
0x0009c064	20	_ZNSt20_List_const_iteratorIPN5L6UUE12ImageArchive4NodeEEppEv
0x0009b6a2	13	_ZNSt20_List_const_iteratorIPN5L6UUE12ImageArchive5ImageEEC1EPKNSt8__detail15_List_node_baseE
0x0009b6a2	13	_ZNSt20_List_const_iteratorIPN5L6UUE12ImageArchive5ImageEEC2EPKNSt8__detail15_List_node_baseE
0x0009bf64	20	_ZNSt20_List_const_iteratorIPN5L6UUE12ImageArchive5ImageEEppEv
0x0011ac2d	96	_ZNSt20__copy_move_backwardILb0ELb0ESt26random_access_iterator_tagE13__copy_move_bIPN4Json12PathArgumentES5_EET0_T_S7_S6_
0x00112740	96	_ZNSt20__copy_move_backwardILb0ELb0ESt26random_access_iterator_tagE13__copy_move_bIPN4Json6Reader9ErrorInfoES6_EET0_T_S8_S7_
0x0010ab43	90	_ZNSt20__copy_move_backwardILb0ELb0ESt26random_access_iterator_tagE13__copy_move_bIPSsS3_EET0_T_S5_S4_
0x0011ab95	101	_ZNSt20__copy_move_backwardILb0ELb1ESt26random_access_iterator_tagE13__copy_move_bIPKN4Json12PathArgumentEEEPT_PKS7_SA_S8_
0x00112149	101	_ZNSt20__copy_move_backwardILb0ELb1ESt26random_access_iterator_tagE13__copy_move_bIPN4Json6Reader9ErrorInfoEEEPT_PKS7_SA_S8_
0x001124e2	101	_ZNSt20__copy_move_backwardILb0ELb1ESt26random_access_iterator_tagE13__copy_move_bIPPN4Json5ValueEEEPT_PKS7_SA_S8_
0x0011a0b4	160	_ZNSt20__uninitialized_copyILb0EE13__uninit_copyIN9__gnu_cxx17__normal_iteratorIPKSsSt6vectorISsSaISsEEEEPSsEET0_T_SC_SB_
0x0011ac8d	134	_ZNSt20__uninitialized_copyILb0EE13__uninit_copyIPN4Json12PathArgumentES4_EET0_T_S6_S5_
0x0010aa59	134	_ZNSt20__uninitialized_copyILb0EE13__uninit_copyIPSsS2_EET0_T_S4_S3_
0x0011221a	226	_ZNSt20__uninitialized_copyILb0EE13__uninit_copyISt15_Deque_iteratorIN4Json6Reader9ErrorInfoERS5_PS5_ES8_EET0_T_SA_S9_
0x0011abfa	51	_ZNSt20__uninitialized_copyILb1EE13__uninit_copyIPPKN4Json12PathArgumentES6_EET0_T_S8_S7_
0x001104c0	124	_ZNSt20__uninitialized_copyILb1EE13__uninit_copyISt15_Deque_iteratorIPN4Json5ValueERKS5_PS6_ES2_IS5_RS5_PS5_EEET0_T_SE_SD_
0x0011136c	201	_ZNSt20__uninitialized_fillILb0EE13__uninit_fillISt15_Deque_iteratorIN4Json6Reader9ErrorInfoERS5_PS5_ES5_EEvT_S9_RKT0_
0x00119d26	13	_ZNSt23_Rb_tree_const_iteratorISt4pairIKN4Json5Value8CZStringES2_EEC1EPKSt13_Rb_tree_nodeIS5_E
0x00116f4c	15	_ZNSt23_Rb_tree_const_iteratorISt4pairIKN4Json5Value8CZStringES2_EEC1ERKSt17_Rb_tree_iteratorIS5_E
0x00119d26	13	_ZNSt23_Rb_tree_const_iteratorISt4pairIKN4Json5Value8CZStringES2_EEC2EPKSt13_Rb_tree_nodeIS5_E
0x00116f4c	15	_ZNSt23_Rb_tree_const_iteratorISt4pairIKN4Json5Value8CZStringES2_EEC2ERKSt17_Rb_tree_iteratorIS5_E
0x00116f5c	47	_ZNSt23_Rb_tree_const_iteratorISt4pairIKN4Json5Value8CZStringES2_EEmmEv
0x0011a6f4	60	_ZNSt23_Rb_tree_const_iteratorISt4pairIKN4Json5Value8CZStringES2_EEppEi
0x00117256	47	_ZNSt23_Rb_tree_const_iteratorISt4pairIKN4Json5Value8CZStringES2_EEppEv
0x000a5d2e	15	_ZNSt23_Rb_tree_const_iteratorISt4pairIKN5L6UUE12ConstraintIDENS1_3AnyEEEC1ERKSt17_Rb_tree_iteratorIS5_E
0x000a5d2e	15	_ZNSt23_Rb_tree_const_iteratorISt4pairIKN5L6UUE12ConstraintIDENS1_3AnyEEEC2ERKSt17_Rb_tree_iteratorIS5_E
0x000a7786	47	_ZNSt23_Rb_tree_const_iteratorISt4pairIKN5L6UUE12ConstraintIDENS1_3AnyEEEmmEv
0x000a77c0	47	_ZNSt23_Rb_tree_const_iteratorISt4pairIKN5L6UUE12ConstraintIDENS1_3AnyEEEppEv
0x0009fb92	15	_ZNSt23_Rb_tree_const_iteratorISt4pairIKN5L6UUE13UpdateCommandEiEEC1ERKSt17_Rb_tree_iteratorIS4_E
0x0009fb92	15	_ZNSt23_Rb_tree_const_iteratorISt4pairIKN5L6UUE13UpdateCommandEiEEC2ERKSt17_Rb_tree_iteratorIS4_E
0x000a04ea	47	_ZNSt23_Rb_tree_const_iteratorISt4pairIKN5L6UUE13UpdateCommandEiEEmmEv
0x000a0524	47	_ZNSt23_Rb_tree_const_iteratorISt4pairIKN5L6UUE13UpdateCommandEiEEppEv
0x000a582e	15	_ZNSt23_Rb_tree_const_iteratorISt4pairIKN5L6UUE13UpdateParamIDENS1_3AnyEEEC1ERKSt17_Rb_tree_iteratorIS5_E
0x000a582e	15	_ZNSt23_Rb_tree_const_iteratorISt4pairIKN5L6UUE13UpdateParamIDENS1_3AnyEEEC2ERKSt17_Rb_tree_iteratorIS5_E
0x000a73a2	47	_ZNSt23_Rb_tree_const_iteratorISt4pairIKN5L6UUE13UpdateParamIDENS1_3AnyEEEmmEv
0x000a73dc	47	_ZNSt23_Rb_tree_const_iteratorISt4pairIKN5L6UUE13UpdateParamIDENS1_3AnyEEEppEv
0x000a48bc	15	_ZNSt23_Rb_tree_const_iteratorISt4pairIKN5L6UUE8DevCapIDEbEEC1ERKSt17_Rb_tree_iteratorIS4_E
0x000a48bc	15	_ZNSt23_Rb_tree_const_iteratorISt4pairIKN5L6UUE8DevCapIDEbEEC2ERKSt17_Rb_tree_iteratorIS4_E
0x000a655c	47	_ZNSt23_Rb_tree_const_iteratorISt4pairIKN5L6UUE8DevCapIDEbEEmmEv
0x000a6596	47	_ZNSt23_Rb_tree_const_iteratorISt4pairIKN5L6UUE8DevCapIDEbEEppEv
0x000a4de2	15	_ZNSt23_Rb_tree_const_iteratorISt4pairIKN5L6UUE9DevPropIDENS1_3AnyEEEC1ERKSt17_Rb_tree_iteratorIS5_E
0x000a4de2	15	_ZNSt23_Rb_tree_const_iteratorISt4pairIKN5L6UUE9DevPropIDENS1_3AnyEEEC2ERKSt17_Rb_tree_iteratorIS5_E
0x000a6a1e	47	_ZNSt23_Rb_tree_const_iteratorISt4pairIKN5L6UUE9DevPropIDENS1_3AnyEEEmmEv
0x000a6a58	47	_ZNSt23_Rb_tree_const_iteratorISt4pairIKN5L6UUE9DevPropIDENS1_3AnyEEEppEv
0x000a5308	15	_ZNSt23_Rb_tree_const_iteratorISt4pairIKN5L6UUE9ImgMetaIDENS1_3AnyEEEC1ERKSt17_Rb_tree_iteratorIS5_E
0x000a5308	15	_ZNSt23_Rb_tree_const_iteratorISt4pairIKN5L6UUE9ImgMetaIDENS1_3AnyEEEC2ERKSt17_Rb_tree_iteratorIS5_E
0x000a6ee0	47	_ZNSt23_Rb_tree_const_iteratorISt4pairIKN5L6UUE9ImgMetaIDENS1_3AnyEEEmmEv
0x000a6f1a	47	_ZNSt23_Rb_tree_const_iteratorISt4pairIKN5L6UUE9ImgMetaIDENS1_3AnyEEEppEv
0x000ac6a4	15	_ZNSt23_Rb_tree_const_iteratorISt4pairIKjN5L6UUE9ImageInfoEEEC1ERKSt17_Rb_tree_iteratorIS4_E
0x000ac6a4	15	_ZNSt23_Rb_tree_const_iteratorISt4pairIKjN5L6UUE9ImageInfoEEEC2ERKSt17_Rb_tree_iteratorIS4_E
0x000ad3f2	47	_ZNSt23_Rb_tree_const_iteratorISt4pairIKjN5L6UUE9ImageInfoEEEmmEv
0x000ad42c	47	_ZNSt23_Rb_tree_const_iteratorISt4pairIKjN5L6UUE9ImageInfoEEEppEv
0x0009b1fe	15	_ZNSt23_Rb_tree_const_iteratorISt4pairIKjjEEC1ERKSt17_Rb_tree_iteratorIS2_E
0x0009b1fe	15	_ZNSt23_Rb_tree_const_iteratorISt4pairIKjjEEC2ERKSt17_Rb_tree_iteratorIS2_E
0x0009bdf2	47	_ZNSt23_Rb_tree_const_iteratorISt4pairIKjjEEmmEv
0x0009be2c	47	_ZNSt23_Rb_tree_const_iteratorISt4pairIKjjEEppEv
0x0011a528	319	_ZNSt25__lexicographical_compareILb0EE4__lcISt23_Rb_tree_const_iteratorISt4pairIKN4Json5Value8CZStringES5_EES9_EEbT_SA_T0_SB_
0x00116fec	57	_ZNSt3mapIN4Json5Value8CZStringES1_St4lessIS2_ESaISt4pairIKS2_S1_EEE11lower_boundERS6_
0x00116f1a	50	_ZNSt3mapIN4Json5Value8CZStringES1_St4lessIS2_ESaISt4pairIKS2_S1_EEE3endEv
0x001170d4	57	_ZNSt3mapIN4Json5Value8CZStringES1_St4lessIS2_ESaISt4pairIKS2_S1_EEE4findERS6_
0x00117210	50	_ZNSt3mapIN4Json5Value8CZStringES1_St4lessIS2_ESaISt4pairIKS2_S1_EEE5beginEv
0x00116f9a	37	_ZNSt3mapIN4Json5Value8CZStringES1_St4lessIS2_ESaISt4pairIKS2_S1_EEE5clearEv
0x00116fc0	44	_ZNSt3mapIN4Json5Value8CZStringES1_St4lessIS2_ESaISt4pairIKS2_S1_EEE5eraseERS6_
0x00117122	44	_ZNSt3mapIN4Json5Value8CZStringES1_St4lessIS2_ESaISt4pairIKS2_S1_EEE5eraseESt17_Rb_tree_iteratorIS7_E
0x00117082	82	_ZNSt3mapIN4Json5Value8CZStringES1_St4lessIS2_ESaISt4pairIKS2_S1_EEE6insertESt17_Rb_tree_iteratorIS7_ERKS7_
0x00116d96	44	_ZNSt3mapIN4Json5Value8CZStringES1_St4lessIS2_ESaISt4pairIKS2_S1_EEEC1ERKS9_
0x00116d70	37	_ZNSt3mapIN4Json5Value8CZStringES1_St4lessIS2_ESaISt4pairIKS2_S1_EEEC1Ev
0x00116d96	44	_ZNSt3mapIN4Json5Value8CZStringES1_St4lessIS2_ESaISt4pairIKS2_S1_EEEC2ERKS9_
0x00116d70	37	_ZNSt3mapIN4Json5Value8CZStringES1_St4lessIS2_ESaISt4pairIKS2_S1_EEEC2Ev
0x0011391a	37	_ZNSt3mapIN4Json5Value8CZStringES1_St4lessIS2_ESaISt4pairIKS2_S1_EEED1Ev
0x0011391a	37	_ZNSt3mapIN4Json5Value8CZStringES1_St4lessIS2_ESaISt4pairIKS2_S1_EEED2Ev
0x000a46b4	57	_ZNSt3mapIN5L6UUE12ConstraintIDENS0_3AnyESt4lessIS1_ESaISt4pairIKS1_S2_EEE11lower_boundERS6_
0x0009f5e0	50	_ZNSt3mapIN5L6UUE12ConstraintIDENS0_3AnyESt4lessIS1_ESaISt4pairIKS1_S2_EEE3endEv
0x0009f5a6	57	_ZNSt3mapIN5L6UUE12ConstraintIDENS0_3AnyESt4lessIS1_ESaISt4pairIKS1_S2_EEE4findERS6_
0x000a3be6	50	_ZNSt3mapIN5L6UUE12ConstraintIDENS0_3AnyESt4lessIS1_ESaISt4pairIKS1_S2_EEE5beginEv
0x000a3c5c	37	_ZNSt3mapIN5L6UUE12ConstraintIDENS0_3AnyESt4lessIS1_ESaISt4pairIKS1_S2_EEE5clearEv
0x000a474e	82	_ZNSt3mapIN5L6UUE12ConstraintIDENS0_3AnyESt4lessIS1_ESaISt4pairIKS1_S2_EEE6insertESt17_Rb_tree_iteratorIS7_ERKS7_
0x000ab4be	37	_ZNSt3mapIN5L6UUE12ConstraintIDENS0_3AnyESt4lessIS1_ESaISt4pairIKS1_S2_EEEC1Ev
0x000ab4be	37	_ZNSt3mapIN5L6UUE12ConstraintIDENS0_3AnyESt4lessIS1_ESaISt4pairIKS1_S2_EEEC2Ev
0x000a9c94	37	_ZNSt3mapIN5L6UUE12ConstraintIDENS0_3AnyESt4lessIS1_ESaISt4pairIKS1_S2_EEED1Ev
0x000a9c94	37	_ZNSt3mapIN5L6UUE12ConstraintIDENS0_3AnyESt4lessIS1_ESaISt4pairIKS1_S2_EEED2Ev
0x000a3c82	271	_ZNSt3mapIN5L6UUE12ConstraintIDENS0_3AnyESt4lessIS1_ESaISt4pairIKS1_S2_EEEixERS6_
0x0009f650	57	_ZNSt3mapIN5L6UUE13UpdateCommandEiSt4lessIS1_ESaISt4pairIKS1_iEEE11lower_boundERS5_
0x0009e7c2	50	_ZNSt3mapIN5L6UUE13UpdateCommandEiSt4lessIS1_ESaISt4pairIKS1_iEEE3endEv
0x0009e788	57	_ZNSt3mapIN5L6UUE13UpdateCommandEiSt4lessIS1_ESaISt4pairIKS1_iEEE4findERS5_
0x0009eaf6	37	_ZNSt3mapIN5L6UUE13UpdateCommandEiSt4lessIS1_ESaISt4pairIKS1_iEEE5clearEv
0x0009f70e	82	_ZNSt3mapIN5L6UUE13UpdateCommandEiSt4lessIS1_ESaISt4pairIKS1_iEEE6insertESt17_Rb_tree_iteratorIS6_ERKS6_
0x0009e6d6	37	_ZNSt3mapIN5L6UUE13UpdateCommandEiSt4lessIS1_ESaISt4pairIKS1_iEEEC1Ev
0x0009e6d6	37	_ZNSt3mapIN5L6UUE13UpdateCommandEiSt4lessIS1_ESaISt4pairIKS1_iEEEC2Ev
0x0009d846	37	_ZNSt3mapIN5L6UUE13UpdateCommandEiSt4lessIS1_ESaISt4pairIKS1_iEEED1Ev
0x0009d846	37	_ZNSt3mapIN5L6UUE13UpdateCommandEiSt4lessIS1_ESaISt4pairIKS1_iEEED2Ev
0x0009e8b8	264	_ZNSt3mapIN5L6UUE13UpdateCommandEiSt4lessIS1_ESaISt4pairIKS1_iEEEixERS5_
0x000a44d8	57	_ZNSt3mapIN5L6UUE13UpdateParamIDENS0_3AnyESt4lessIS1_ESaISt4pairIKS1_S2_EEE11lower_boundERS6_
0x000a39ea	50	_ZNSt3mapIN5L6UUE13UpdateParamIDENS0_3AnyESt4lessIS1_ESaISt4pairIKS1_S2_EEE3endEv
0x000a39b8	50	_ZNSt3mapIN5L6UUE13UpdateParamIDENS0_3AnyESt4lessIS1_ESaISt4pairIKS1_S2_EEE5beginEv
0x000a3a8a	37	_ZNSt3mapIN5L6UUE13UpdateParamIDENS0_3AnyESt4lessIS1_ESaISt4pairIKS1_S2_EEE5clearEv
0x000a459c	82	_ZNSt3mapIN5L6UUE13UpdateParamIDENS0_3AnyESt4lessIS1_ESaISt4pairIKS1_S2_EEE6insertESt17_Rb_tree_iteratorIS7_ERKS7_
0x000ab41a	37	_ZNSt3mapIN5L6UUE13UpdateParamIDENS0_3AnyESt4lessIS1_ESaISt4pairIKS1_S2_EEEC1Ev
0x000ab41a	37	_ZNSt3mapIN5L6UUE13UpdateParamIDENS0_3AnyESt4lessIS1_ESaISt4pairIKS1_S2_EEEC2Ev
0x000a9b7c	37	_ZNSt3mapIN5L6UUE13UpdateParamIDENS0_3AnyESt4lessIS1_ESaISt4pairIKS1_S2_EEED1Ev
0x000a9b7c	37	_ZNSt3mapIN5L6UUE13UpdateParamIDENS0_3AnyESt4lessIS1_ESaISt4pairIKS1_S2_EEED2Ev
0x000a3ab0	271	_ZNSt3mapIN5L6UUE13UpdateParamIDENS0_3AnyESt4lessIS1_ESaISt4pairIKS1_S2_EEEixERS6_
0x000a3e94	57	_ZNSt3mapIN5L6UUE8DevCapIDEbSt4lessIS1_ESaISt4pairIKS1_bEEE11lower_boundERS5_
0x000a336a	50	_ZNSt3mapIN5L6UUE8DevCapIDEbSt4lessIS1_ESaISt4pairIKS1_bEEE3endEv
0x000ac124	57	_ZNSt3mapIN5L6UUE8DevCapIDEbSt4lessIS1_ESaISt4pairIKS1_bEEE4findERS5_
0x000a3338	50	_ZNSt3mapIN5L6UUE8DevCapIDEbSt4lessIS1_ESaISt4pairIKS1_bEEE5beginEv
0x000a340a	37	_ZNSt3mapIN5L6UUE8DevCapIDEbSt4lessIS1_ESaISt4pairIKS1_bEEE5clearEv
0x000a3f54	82	_ZNSt3mapIN5L6UUE8DevCapIDEbSt4lessIS1_ESaISt4pairIKS1_bEEE6insertESt17_Rb_tree_iteratorIS6_ERKS6_
0x000ab10c	37	_ZNSt3mapIN5L6UUE8DevCapIDEbSt4lessIS1_ESaISt4pairIKS1_bEEEC1Ev
0x000ab10c	37	_ZNSt3mapIN5L6UUE8DevCapIDEbSt4lessIS1_ESaISt4pairIKS1_bEEEC2Ev
0x000a9186	37	_ZNSt3mapIN5L6UUE8DevCapIDEbSt4lessIS1_ESaISt4pairIKS1_bEEED1Ev
0x000a9186	37	_ZNSt3mapIN5L6UUE8DevCapIDEbSt4lessIS1_ESaISt4pairIKS1_bEEED2Ev
0x000a3430	261	_ZNSt3mapIN5L6UUE8DevCapIDEbSt4lessIS1_ESaISt4pairIKS1_bEEEixERS5_
0x000a40a8	57	_ZNSt3mapIN5L6UUE9DevPropIDENS0_3AnyESt4lessIS1_ESaISt4pairIKS1_S2_EEE11lower_boundERS6_
0x000a358e	50	_ZNSt3mapIN5L6UUE9DevPropIDENS0_3AnyESt4lessIS1_ESaISt4pairIKS1_S2_EEE3endEv
0x000a355c	50	_ZNSt3mapIN5L6UUE9DevPropIDENS0_3AnyESt4lessIS1_ESaISt4pairIKS1_S2_EEE5beginEv
0x000a362e	37	_ZNSt3mapIN5L6UUE9DevPropIDENS0_3AnyESt4lessIS1_ESaISt4pairIKS1_S2_EEE5clearEv
0x000a416c	82	_ZNSt3mapIN5L6UUE9DevPropIDENS0_3AnyESt4lessIS1_ESaISt4pairIKS1_S2_EEE6insertESt17_Rb_tree_iteratorIS7_ERKS7_
0x000ab1b0	37	_ZNSt3mapIN5L6UUE9DevPropIDENS0_3AnyESt4lessIS1_ESaISt4pairIKS1_S2_EEEC1Ev
0x000ab1b0	37	_ZNSt3mapIN5L6UUE9DevPropIDENS0_3AnyESt4lessIS1_ESaISt4pairIKS1_S2_EEEC2Ev
0x000a91f8	37	_ZNSt3mapIN5L6UUE9DevPropIDENS0_3AnyESt4lessIS1_ESaISt4pairIKS1_S2_EEED1Ev
0x000a91f8	37	_ZNSt3mapIN5L6UUE9DevPropIDENS0_3AnyESt4lessIS1_ESaISt4pairIKS1_S2_EEED2Ev
0x000a3654	271	_ZNSt3mapIN5L6UUE9DevPropIDENS0_3AnyESt4lessIS1_ESaISt4pairIKS1_S2_EEEixERS6_
0x000a42c0	57	_ZNSt3mapIN5L6UUE9ImgMetaIDENS0_3AnyESt4lessIS1_ESaISt4pairIKS1_S2_EEE11lower_boundERS6_
0x000a37bc	50	_ZNSt3mapIN5L6UUE9ImgMetaIDENS0_3AnyESt4lessIS1_ESaISt4pairIKS1_S2_EEE3endEv
0x000a378a	50	_ZNSt3mapIN5L6UUE9ImgMetaIDENS0_3AnyESt4lessIS1_ESaISt4pairIKS1_S2_EEE5beginEv
0x000a385c	37	_ZNSt3mapIN5L6UUE9ImgMetaIDENS0_3AnyESt4lessIS1_ESaISt4pairIKS1_S2_EEE5clearEv
0x000a4384	82	_ZNSt3mapIN5L6UUE9ImgMetaIDENS0_3AnyESt4lessIS1_ESaISt4pairIKS1_S2_EEE6insertESt17_Rb_tree_iteratorIS7_ERKS7_
0x000ac678	44	_ZNSt3mapIN5L6UUE9ImgMetaIDENS0_3AnyESt4lessIS1_ESaISt4pairIKS1_S2_EEEC1ERKS9_
0x000ab562	37	_ZNSt3mapIN5L6UUE9ImgMetaIDENS0_3AnyESt4lessIS1_ESaISt4pairIKS1_S2_EEEC1Ev
0x000ac678	44	_ZNSt3mapIN5L6UUE9ImgMetaIDENS0_3AnyESt4lessIS1_ESaISt4pairIKS1_S2_EEEC2ERKS9_
0x000ab562	37	_ZNSt3mapIN5L6UUE9ImgMetaIDENS0_3AnyESt4lessIS1_ESaISt4pairIKS1_S2_EEEC2Ev
0x000a9d56	37	_ZNSt3mapIN5L6UUE9ImgMetaIDENS0_3AnyESt4lessIS1_ESaISt4pairIKS1_S2_EEED1Ev
0x000a9d56	37	_ZNSt3mapIN5L6UUE9ImgMetaIDENS0_3AnyESt4lessIS1_ESaISt4pairIKS1_S2_EEED2Ev
0x000ab7da	47	_ZNSt3mapIN5L6UUE9ImgMetaIDENS0_3AnyESt4lessIS1_ESaISt4pairIKS1_S2_EEEaSERKS9_
0x000a3882	271	_ZNSt3mapIN5L6UUE9ImgMetaIDENS0_3AnyESt4lessIS1_ESaISt4pairIKS1_S2_EEEixERS6_
0x000abe8e	57	_ZNSt3mapIjN5L6UUE9ImageInfoESt4lessIjESaISt4pairIKjS1_EEE11lower_boundERS5_
0x000ab2c4	50	_ZNSt3mapIjN5L6UUE9ImageInfoESt4lessIjESaISt4pairIKjS1_EEE3endEv
0x000ab3d4	57	_ZNSt3mapIjN5L6UUE9ImageInfoESt4lessIjESaISt4pairIKjS1_EEE4findERS5_
0x000ab292	50	_ZNSt3mapIjN5L6UUE9ImageInfoESt4lessIjESaISt4pairIKjS1_EEE5beginEv
0x000ab622	37	_ZNSt3mapIjN5L6UUE9ImageInfoESt4lessIjESaISt4pairIKjS1_EEE5clearEv
0x000abff4	82	_ZNSt3mapIjN5L6UUE9ImageInfoESt4lessIjESaISt4pairIKjS1_EEE6insertESt17_Rb_tree_iteratorIS6_ERKS6_
0x000ab068	37	_ZNSt3mapIjN5L6UUE9ImageInfoESt4lessIjESaISt4pairIKjS1_EEEC1Ev
0x000ab068	37	_ZNSt3mapIjN5L6UUE9ImageInfoESt4lessIjESaISt4pairIKjS1_EEEC2Ev
0x000a9160	37	_ZNSt3mapIjN5L6UUE9ImageInfoESt4lessIjESaISt4pairIKjS1_EEED1Ev
0x000a9160	37	_ZNSt3mapIjN5L6UUE9ImageInfoESt4lessIjESaISt4pairIKjS1_EEED2Ev
0x000ab670	362	_ZNSt3mapIjN5L6UUE9ImageInfoESt4lessIjESaISt4pairIKjS1_EEEixERS5_
0x0009aa84	57	_ZNSt3mapIjjSt4lessIjESaISt4pairIKjjEEE11lower_boundERS3_
0x0009a156	50	_ZNSt3mapIjjSt4lessIjESaISt4pairIKjjEEE3endEv
0x0009a124	50	_ZNSt3mapIjjSt4lessIjESaISt4pairIKjjEEE5beginEv
0x000998ae	37	_ZNSt3mapIjjSt4lessIjESaISt4pairIKjjEEE5clearEv
0x0009ab40	82	_ZNSt3mapIjjSt4lessIjESaISt4pairIKjjEEE6insertESt17_Rb_tree_iteratorIS4_ERKS4_
0x0009d378	44	_ZNSt3mapIjjSt4lessIjESaISt4pairIKjjEEEC1ERKS6_
0x0009a4b0	37	_ZNSt3mapIjjSt4lessIjESaISt4pairIKjjEEEC1Ev
0x0009d378	44	_ZNSt3mapIjjSt4lessIjESaISt4pairIKjjEEEC2ERKS6_
0x0009a4b0	37	_ZNSt3mapIjjSt4lessIjESaISt4pairIKjjEEEC2Ev
0x00099a94	37	_ZNSt3mapIjjSt4lessIjESaISt4pairIKjjEEED1Ev
0x00099a94	37	_ZNSt3mapIjjSt4lessIjESaISt4pairIKjjEEED2Ev
0x0009a1f6	264	_ZNSt3mapIjjSt4lessIjESaISt4pairIKjjEEEixERS3_
0x0009d028	180	_ZNSt4listIN5L6UUE12UpdateEngine9ImageInfoESaIS2_EE14_M_create_nodeERKS2_
0x0009cc78	49	_ZNSt4listIN5L6UUE12UpdateEngine9ImageInfoESaIS2_EE3endEv
0x0009cc44	51	_ZNSt4listIN5L6UUE12UpdateEngine9ImageInfoESaIS2_EE5beginEv
0x000ab254	48	_ZNSt4listIN5L6UUE12UpdateEngine9ImageInfoESaIS2_EE5clearEv
0x000ab38e	70	_ZNSt4listIN5L6UUE12UpdateEngine9ImageInfoESaIS2_EE5eraseESt14_List_iteratorIS2_E
0x000abbbc	149	_ZNSt4listIN5L6UUE12UpdateEngine9ImageInfoESaIS2_EE8_M_eraseESt14_List_iteratorIS2_E
0x0009ce14	65	_ZNSt4listIN5L6UUE12UpdateEngine9ImageInfoESaIS2_EE9_M_insertESt14_List_iteratorIS2_ERKS2_
0x0009cb98	71	_ZNSt4listIN5L6UUE12UpdateEngine9ImageInfoESaIS2_EE9push_backERKS2_
0x0009cb02	37	_ZNSt4listIN5L6UUE12UpdateEngine9ImageInfoESaIS2_EEC1Ev
0x0009cb02	37	_ZNSt4listIN5L6UUE12UpdateEngine9ImageInfoESaIS2_EEC2Ev
0x0009c494	37	_ZNSt4listIN5L6UUE12UpdateEngine9ImageInfoESaIS2_EED1Ev
0x0009c494	37	_ZNSt4listIN5L6UUE12UpdateEngine9ImageInfoESaIS2_EED2Ev
0x0009b9b4	180	_ZNSt4listIPN5L6UUE12ImageArchive4NodeESaIS3_EE14_M_create_nodeERKS3_
0x0009a844	49	_ZNSt4listIPN5L6UUE12ImageArchive4NodeESaIS3_EE3endEv
0x0009a810	51	_ZNSt4listIPN5L6UUE12ImageArchive4NodeESaIS3_EE5beginEv
0x0009a8ac	48	_ZNSt4listIPN5L6UUE12ImageArchive4NodeESaIS3_EE5clearEv
0x0009b144	65	_ZNSt4listIPN5L6UUE12ImageArchive4NodeESaIS3_EE9_M_insertESt14_List_iteratorIS3_ERKS3_
0x0009a958	71	_ZNSt4listIPN5L6UUE12ImageArchive4NodeESaIS3_EE9push_backERKS3_
0x00099d6e	37	_ZNSt4listIPN5L6UUE12ImageArchive4NodeESaIS3_EEC1Ev
0x00099d6e	37	_ZNSt4listIPN5L6UUE12ImageArchive4NodeESaIS3_EEC2Ev
0x00099498	37	_ZNSt4listIPN5L6UUE12ImageArchive4NodeESaIS3_EED1Ev
0x00099498	37	_ZNSt4listIPN5L6UUE12ImageArchive4NodeESaIS3_EED2Ev
0x0009b78a	180	_ZNSt4listIPN5L6UUE12ImageArchive5ImageESaIS3_EE14_M_create_nodeERKS3_
0x0009a448	49	_ZNSt4listIPN5L6UUE12ImageArchive5ImageESaIS3_EE3endEv
0x0009a414	51	_ZNSt4listIPN5L6UUE12ImageArchive5ImageESaIS3_EE5beginEv
0x0009a6b4	48	_ZNSt4listIPN5L6UUE12ImageArchive5ImageESaIS3_EE5clearEv
0x0009ae62	65	_ZNSt4listIPN5L6UUE12ImageArchive5ImageESaIS3_EE9_M_insertESt14_List_iteratorIS3_ERKS3_
0x0009a59a	71	_ZNSt4listIPN5L6UUE12ImageArchive5ImageESaIS3_EE9push_backERKS3_
0x0009a932	37	_ZNSt4listIPN5L6UUE12ImageArchive5ImageESaIS3_EEC1Ev
0x0009a932	37	_ZNSt4listIPN5L6UUE12ImageArchive5ImageESaIS3_EEC2Ev
0x00099376	37	_ZNSt4listIPN5L6UUE12ImageArchive5ImageESaIS3_EED1Ev
0x00099376	37	_ZNSt4listIPN5L6UUE12ImageArchive5ImageESaIS3_EED2Ev
0x0011a792	95	_ZNSt4pairIKN4Json5Value8CZStringES1_EC1ERKS4_
0x00117026	92	_ZNSt4pairIKN4Json5Value8CZStringES1_EC1ERS3_RKS1_
0x0011a792	95	_ZNSt4pairIKN4Json5Value8CZStringES1_EC2ERKS4_
0x00117026	92	_ZNSt4pairIKN4Json5Value8CZStringES1_EC2ERS3_RKS1_
0x0011510c	76	_ZNSt4pairIKN4Json5Value8CZStringES1_ED1Ev
0x0011510c	76	_ZNSt4pairIKN4Json5Value8CZStringES1_ED2Ev
0x000a472e	32	_ZNSt4pairIKN5L6UUE12ConstraintIDENS0_3AnyEEC1ERS2_RKS3_
0x000a472e	32	_ZNSt4pairIKN5L6UUE12ConstraintIDENS0_3AnyEEC2ERS2_RKS3_
0x000a8084	5	_ZNSt4pairIKN5L6UUE12ConstraintIDENS0_3AnyEED1Ev
0x000a8084	5	_ZNSt4pairIKN5L6UUE12ConstraintIDENS0_3AnyEED2Ev
0x0009f6f4	26	_ZNSt4pairIKN5L6UUE13UpdateCommandEiEC1ERS2_RKi
0x0009f6f4	26	_ZNSt4pairIKN5L6UUE13UpdateCommandEiEC2ERS2_RKi
0x000a0078	5	_ZNSt4pairIKN5L6UUE13UpdateCommandEiED1Ev
0x000a0078	5	_ZNSt4pairIKN5L6UUE13UpdateCommandEiED2Ev
0x000a457c	32	_ZNSt4pairIKN5L6UUE13UpdateParamIDENS0_3AnyEEC1ERS2_RKS3_
0x000a457c	32	_ZNSt4pairIKN5L6UUE13UpdateParamIDENS0_3AnyEEC2ERS2_RKS3_
0x000a7e84	5	_ZNSt4pairIKN5L6UUE13UpdateParamIDENS0_3AnyEED1Ev
0x000a7e84	5	_ZNSt4pairIKN5L6UUE13UpdateParamIDENS0_3AnyEED2Ev
0x000a3f38	27	_ZNSt4pairIKN5L6UUE8DevCapIDEbEC1ERS2_RKb
0x000a3f38	27	_ZNSt4pairIKN5L6UUE8DevCapIDEbEC2ERS2_RKb
0x000a7884	5	_ZNSt4pairIKN5L6UUE8DevCapIDEbED1Ev
0x000a7884	5	_ZNSt4pairIKN5L6UUE8DevCapIDEbED2Ev
0x000a414c	32	_ZNSt4pairIKN5L6UUE9DevPropIDENS0_3AnyEEC1ERS2_RKS3_
0x000a414c	32	_ZNSt4pairIKN5L6UUE9DevPropIDENS0_3AnyEEC2ERS2_RKS3_
0x000a7a84	5	_ZNSt4pairIKN5L6UUE9DevPropIDENS0_3AnyEED1Ev
0x000a7a84	5	_ZNSt4pairIKN5L6UUE9DevPropIDENS0_3AnyEED2Ev
0x000a4364	32	_ZNSt4pairIKN5L6UUE9ImgMetaIDENS0_3AnyEEC1ERS2_RKS3_
0x000a4364	32	_ZNSt4pairIKN5L6UUE9ImgMetaIDENS0_3AnyEEC2ERS2_RKS3_
0x000a7c84	5	_ZNSt4pairIKN5L6UUE9ImgMetaIDENS0_3AnyEED1Ev
0x000a7c84	5	_ZNSt4pairIKN5L6UUE9ImgMetaIDENS0_3AnyEED2Ev
0x000ad748	60	_ZNSt4pairIKjN5L6UUE9ImageInfoEEC1ERKS3_
0x000abfba	57	_ZNSt4pairIKjN5L6UUE9ImageInfoEEC1ERS0_RKS2_
0x000ad748	60	_ZNSt4pairIKjN5L6UUE9ImageInfoEEC2ERKS3_
0x000abfba	57	_ZNSt4pairIKjN5L6UUE9ImageInfoEEC2ERS0_RKS2_
0x000ab648	40	_ZNSt4pairIKjN5L6UUE9ImageInfoEED1Ev
0x000ab648	40	_ZNSt4pairIKjN5L6UUE9ImageInfoEED2Ev
0x0009ab26	26	_ZNSt4pairIKjjEC1ERS0_S2_
0x0009ab26	26	_ZNSt4pairIKjjEC2ERS0_S2_
0x0009bef0	5	_ZNSt4pairIKjjED1Ev
0x0009bef0	5	_ZNSt4pairIKjjED2Ev
0x00119e98	26	_ZNSt4pairISt17_Rb_tree_iteratorIS_IKN4Json5Value8CZStringES2_EES6_EC1ERKS6_S9_
0x00119e98	26	_ZNSt4pairISt17_Rb_tree_iteratorIS_IKN4Json5Value8CZStringES2_EES6_EC2ERKS6_S9_
0x0011a06c	27	_ZNSt4pairISt17_Rb_tree_iteratorIS_IKN4Json5Value8CZStringES2_EEbEC1ERKS6_RKb
0x0011a06c	27	_ZNSt4pairISt17_Rb_tree_iteratorIS_IKN4Json5Value8CZStringES2_EEbEC2ERKS6_RKb
0x000a8198	27	_ZNSt4pairISt17_Rb_tree_iteratorIS_IKN5L6UUE12ConstraintIDENS1_3AnyEEEbEC1ERKS6_RKb
0x000a8198	27	_ZNSt4pairISt17_Rb_tree_iteratorIS_IKN5L6UUE12ConstraintIDENS1_3AnyEEEbEC2ERKS6_RKb
0x000a0738	27	_ZNSt4pairISt17_Rb_tree_iteratorIS_IKN5L6UUE13UpdateCommandEiEEbEC1ERKS5_RKb
0x000a0738	27	_ZNSt4pairISt17_Rb_tree_iteratorIS_IKN5L6UUE13UpdateCommandEiEEbEC2ERKS5_RKb
0x000a7fd8	27	_ZNSt4pairISt17_Rb_tree_iteratorIS_IKN5L6UUE13UpdateParamIDENS1_3AnyEEEbEC1ERKS6_RKb
0x000a7fd8	27	_ZNSt4pairISt17_Rb_tree_iteratorIS_IKN5L6UUE13UpdateParamIDENS1_3AnyEEEbEC2ERKS6_RKb
0x000a79d8	27	_ZNSt4pairISt17_Rb_tree_iteratorIS_IKN5L6UUE8DevCapIDEbEEbEC1ERKS5_RKb
0x000a79d8	27	_ZNSt4pairISt17_Rb_tree_iteratorIS_IKN5L6UUE8DevCapIDEbEEbEC2ERKS5_RKb
0x000a7bd8	27	_ZNSt4pairISt17_Rb_tree_iteratorIS_IKN5L6UUE9DevPropIDENS1_3AnyEEEbEC1ERKS6_RKb
0x000a7bd8	27	_ZNSt4pairISt17_Rb_tree_iteratorIS_IKN5L6UUE9DevPropIDENS1_3AnyEEEbEC2ERKS6_RKb
0x000a7dd8	27	_ZNSt4pairISt17_Rb_tree_iteratorIS_IKN5L6UUE9ImgMetaIDENS1_3AnyEEEbEC1ERKS6_RKb
0x000a7dd8	27	_ZNSt4pairISt17_Rb_tree_iteratorIS_IKN5L6UUE9ImgMetaIDENS1_3AnyEEEbEC2ERKS6_RKb
0x000ad694	27	_ZNSt4pairISt17_Rb_tree_iteratorIS_IKjN5L6UUE9ImageInfoEEEbEC1ERKS5_RKb
0x000ad694	27	_ZNSt4pairISt17_Rb_tree_iteratorIS_IKjN5L6UUE9ImageInfoEEEbEC2ERKS5_RKb
0x0009c200	27	_ZNSt4pairISt17_Rb_tree_iteratorIS_IKjjEEbEC1ERKS3_RKb
0x0009c200	27	_ZNSt4pairISt17_Rb_tree_iteratorIS_IKjjEEbEC2ERKS3_RKb
0x0010fd20	1797	_ZNSt5dequeIN4Json6Reader9ErrorInfoESaIS2_EE13_M_insert_auxESt15_Deque_iteratorIS2_RS2_PS2_EjRKS2_
0x0010efae	523	_ZNSt5dequeIN4Json6Reader9ErrorInfoESaIS2_EE14_M_fill_insertESt15_Deque_iteratorIS2_RS2_PS2_EjRKS2_
0x00087bfd	38	_ZNSt5dequeIN4Json6Reader9ErrorInfoESaIS2_EE14_S_buffer_sizeEv
0x0008764a	87	_ZNSt5dequeIN4Json6Reader9ErrorInfoESaIS2_EE15_M_destroy_dataESt15_Deque_iteratorIS2_RS2_PS2_ES8_RKS3_
0x0010e2bc	175	_ZNSt5dequeIN4Json6Reader9ErrorInfoESaIS2_EE15_M_erase_at_endESt15_Deque_iteratorIS2_RS2_PS2_E
0x0010e500	192	_ZNSt5dequeIN4Json6Reader9ErrorInfoESaIS2_EE16_M_push_back_auxERKS2_
0x0010f9a2	475	_ZNSt5dequeIN4Json6Reader9ErrorInfoESaIS2_EE17_M_reallocate_mapEjb
0x000878fa	260	_ZNSt5dequeIN4Json6Reader9ErrorInfoESaIS2_EE19_M_destroy_data_auxESt15_Deque_iteratorIS2_RS2_PS2_ES8_
0x0010ee9c	100	_ZNSt5dequeIN4Json6Reader9ErrorInfoESaIS2_EE22_M_reserve_map_at_backEj
0x00110a5c	276	_ZNSt5dequeIN4Json6Reader9ErrorInfoESaIS2_EE23_M_new_elements_at_backEj
0x001112ee	79	_ZNSt5dequeIN4Json6Reader9ErrorInfoESaIS2_EE23_M_reserve_map_at_frontEj
0x0011089a	280	_ZNSt5dequeIN4Json6Reader9ErrorInfoESaIS2_EE24_M_new_elements_at_frontEj
0x0010fc9e	130	_ZNSt5dequeIN4Json6Reader9ErrorInfoESaIS2_EE27_M_reserve_elements_at_backEj
0x0010fbc8	127	_ZNSt5dequeIN4Json6Reader9ErrorInfoESaIS2_EE28_M_reserve_elements_at_frontEj
0x000875da	52	_ZNSt5dequeIN4Json6Reader9ErrorInfoESaIS2_EE3endEv
0x000875a6	52	_ZNSt5dequeIN4Json6Reader9ErrorInfoESaIS2_EE5beginEv
0x0010dd96	64	_ZNSt5dequeIN4Json6Reader9ErrorInfoESaIS2_EE5clearEv
0x0010e636	76	_ZNSt5dequeIN4Json6Reader9ErrorInfoESaIS2_EE6insertESt15_Deque_iteratorIS2_RS2_PS2_EjRKS2_
0x0010df38	169	_ZNSt5dequeIN4Json6Reader9ErrorInfoESaIS2_EE6resizeEjS2_
0x0010de9a	108	_ZNSt5dequeIN4Json6Reader9ErrorInfoESaIS2_EE9push_backERKS2_
0x0010dd70	37	_ZNSt5dequeIN4Json6Reader9ErrorInfoESaIS2_EEC1Ev
0x0010dd70	37	_ZNSt5dequeIN4Json6Reader9ErrorInfoESaIS2_EEC2Ev
0x0008717e	147	_ZNSt5dequeIN4Json6Reader9ErrorInfoESaIS2_EED1Ev
0x0008717e	147	_ZNSt5dequeIN4Json6Reader9ErrorInfoESaIS2_EED2Ev
0x000874ee	9	_ZNSt5dequeIPN4Json5ValueESaIS2_EE15_M_destroy_dataESt15_Deque_iteratorIS2_RS2_PS2_ES8_RKS3_
0x0010ecfe	110	_ZNSt5dequeIPN4Json5ValueESaIS2_EE15_M_pop_back_auxEv
0x0010eda4	192	_ZNSt5dequeIPN4Json5ValueESaIS2_EE16_M_push_back_auxERKS2_
0x00110584	475	_ZNSt5dequeIPN4Json5ValueESaIS2_EE17_M_reallocate_mapEjb
0x0010f784	100	_ZNSt5dequeIPN4Json5ValueESaIS2_EE22_M_reserve_map_at_backEj
0x0008747e	52	_ZNSt5dequeIPN4Json5ValueESaIS2_EE3endEv
0x0010e6d4	68	_ZNSt5dequeIPN4Json5ValueESaIS2_EE4backEv
0x0008744a	52	_ZNSt5dequeIPN4Json5ValueESaIS2_EE5beginEv
0x0010e39e	91	_ZNSt5dequeIPN4Json5ValueESaIS2_EE8pop_backEv
0x0010e3fa	108	_ZNSt5dequeIPN4Json5ValueESaIS2_EE9push_backERKS2_
0x0010e15a	269	_ZNSt5dequeIPN4Json5ValueESaIS2_EEC1ERKS4_
0x0010dd1e	37	_ZNSt5dequeIPN4Json5ValueESaIS2_EEC1Ev
0x0010e15a	269	_ZNSt5dequeIPN4Json5ValueESaIS2_EEC2ERKS4_
0x0010dd1e	37	_ZNSt5dequeIPN4Json5ValueESaIS2_EEC2Ev
0x000870ea	147	_ZNSt5dequeIPN4Json5ValueESaIS2_EED1Ev
0x000870ea	147	_ZNSt5dequeIPN4Json5ValueESaIS2_EED2Ev
0x0010ddfc	37	_ZNSt5stackIPN4Json5ValueESt5dequeIS2_SaIS2_EEE3popEv
0x0010dfe2	37	_ZNSt5stackIPN4Json5ValueESt5dequeIS2_SaIS2_EEE3topEv
0x0010de22	44	_ZNSt5stackIPN4Json5ValueESt5dequeIS2_SaIS2_EEE4pushERKS2_
0x0010dd44	44	_ZNSt5stackIPN4Json5ValueESt5dequeIS2_SaIS2_EEEC1ERKS5_
0x0010dd44	44	_ZNSt5stackIPN4Json5ValueESt5dequeIS2_SaIS2_EEEC2ERKS5_
0x000863ac	37	_ZNSt5stackIPN4Json5ValueESt5dequeIS2_SaIS2_EEED1Ev
0x000863ac	37	_ZNSt5stackIPN4Json5ValueESt5dequeIS2_SaIS2_EEED2Ev
0x00118668	762	_ZNSt6vectorIN4Json12PathArgumentESaIS1_EE13_M_insert_auxEN9__gnu_cxx17__normal_iteratorIPS1_S3_EERKS1_
0x001189aa	52	_ZNSt6vectorIN4Json12PathArgumentESaIS1_EE3endEv
0x00119a60	49	_ZNSt6vectorIN4Json12PathArgumentESaIS1_EE5beginEv
0x0011745c	132	_ZNSt6vectorIN4Json12PathArgumentESaIS1_EE9push_backERKS1_
0x00117286	37	_ZNSt6vectorIN4Json12PathArgumentESaIS1_EEC1Ev
0x00117286	37	_ZNSt6vectorIN4Json12PathArgumentESaIS1_EEC2Ev
0x001172ac	102	_ZNSt6vectorIN4Json12PathArgumentESaIS1_EED1Ev
0x001172ac	102	_ZNSt6vectorIN4Json12PathArgumentESaIS1_EED2Ev
0x001182d8	677	_ZNSt6vectorIPKN4Json12PathArgumentESaIS3_EE13_M_insert_auxEN9__gnu_cxx17__normal_iteratorIPS3_S5_EERKS3_
0x0011857e	52	_ZNSt6vectorIPKN4Json12PathArgumentESaIS3_EE3endEv
0x0011984e	49	_ZNSt6vectorIPKN4Json12PathArgumentESaIS3_EE5beginEv
0x0011739e	132	_ZNSt6vectorIPKN4Json12PathArgumentESaIS3_EE9push_backERKS3_
0x00117312	37	_ZNSt6vectorIPKN4Json12PathArgumentESaIS3_EEC1Ev
0x00117312	37	_ZNSt6vectorIPKN4Json12PathArgumentESaIS3_EEC2Ev
0x00117338	102	_ZNSt6vectorIPKN4Json12PathArgumentESaIS3_EED1Ev
0x00117338	102	_ZNSt6vectorIPKN4Json12PathArgumentESaIS3_EED2Ev
0x0010a36e	738	_ZNSt6vectorISsSaISsEE13_M_insert_auxEN9__gnu_cxx17__normal_iteratorIPSsS1_EERKSs
0x0010a1e4	73	_ZNSt6vectorISsSaISsEE15_M_erase_at_endEPSs
0x0010a278	147	_ZNSt6vectorISsSaISsEE20_M_allocate_and_copyIPSsEES3_jT_S4_
0x00087244	52	_ZNSt6vectorISsSaISsEE3endEv
0x00087212	49	_ZNSt6vectorISsSaISsEE5beginEv
0x00109eac	46	_ZNSt6vectorISsSaISsEE5clearEv
0x00109eda	272	_ZNSt6vectorISsSaISsEE7reserveEj
0x00109fea	132	_ZNSt6vectorISsSaISsEE9push_backERKSs
0x0011714e	193	_ZNSt6vectorISsSaISsEEC1ERKS1_
0x00109dc6	37	_ZNSt6vectorISsSaISsEEC1Ev
0x0011714e	193	_ZNSt6vectorISsSaISsEEC2ERKS1_
0x00109dc6	37	_ZNSt6vectorISsSaISsEEC2Ev
0x00087084	102	_ZNSt6vectorISsSaISsEED1Ev
0x00087084	102	_ZNSt6vectorISsSaISsEED2Ev
0x00109e7e	18	_ZNSt6vectorISsSaISsEEixEj
0x0011a667	129	_ZNSt7__equalILb0EE5equalISt23_Rb_tree_const_iteratorISt4pairIKN4Json5Value8CZStringES5_EES9_EEbT_SA_T0_
0x001191d2	216	_ZNSt8_Rb_treeIN4Json5Value8CZStringESt4pairIKS2_S1_ESt10_Select1stIS5_ESt4lessIS2_ESaIS5_EE10_M_insert_EPKSt18_Rb_tree_node_baseSE_RKS5_
0x00118c97	37	_ZNSt8_Rb_treeIN4Json5Value8CZStringESt4pairIKS2_S1_ESt10_Select1stIS5_ESt4lessIS2_ESaIS5_EE10_S_maximumEPSt18_Rb_tree_node_base
0x00118c67	37	_ZNSt8_Rb_treeIN4Json5Value8CZStringESt4pairIKS2_S1_ESt10_Select1stIS5_ESt4lessIS2_ESaIS5_EE10_S_minimumEPSt18_Rb_tree_node_base
0x0011a75c	53	_ZNSt8_Rb_treeIN4Json5Value8CZStringESt4pairIKS2_S1_ESt10_Select1stIS5_ESt4lessIS2_ESaIS5_EE11_M_get_nodeEv
0x00118c8c	11	_ZNSt8_Rb_treeIN4Json5Value8CZStringESt4pairIKS2_S1_ESt10_Select1stIS5_ESt4lessIS2_ESaIS5_EE11_M_leftmostEv
0x00119cf2	52	_ZNSt8_Rb_treeIN4Json5Value8CZStringESt4pairIKS2_S1_ESt10_Select1stIS5_ESt4lessIS2_ESaIS5_EE11_M_put_nodeEPSt13_Rb_tree_nodeIS5_E
0x00118ee2	419	_ZNSt8_Rb_treeIN4Json5Value8CZStringESt4pairIKS2_S1_ESt10_Select1stIS5_ESt4lessIS2_ESaIS5_EE11equal_rangeERS4_
0x00117a72	94	_ZNSt8_Rb_treeIN4Json5Value8CZStringESt4pairIKS2_S1_ESt10_Select1stIS5_ESt4lessIS2_ESaIS5_EE11lower_boundERS4_
0x001194d4	83	_ZNSt8_Rb_treeIN4Json5Value8CZStringESt4pairIKS2_S1_ESt10_Select1stIS5_ESt4lessIS2_ESaIS5_EE12_M_erase_auxESt23_Rb_tree_const_iteratorIS5_E
0x00119eb2	250	_ZNSt8_Rb_treeIN4Json5Value8CZStringESt4pairIKS2_S1_ESt10_Select1stIS5_ESt4lessIS2_ESaIS5_EE12_M_erase_auxESt23_Rb_tree_const_iteratorIS5_ESD_
0x00118cbc	11	_ZNSt8_Rb_treeIN4Json5Value8CZStringESt4pairIKS2_S1_ESt10_Select1stIS5_ESt4lessIS2_ESaIS5_EE12_M_rightmostEv
0x00119c0e	83	_ZNSt8_Rb_treeIN4Json5Value8CZStringESt4pairIKS2_S1_ESt10_Select1stIS5_ESt4lessIS2_ESaIS5_EE13_M_clone_nodeEPKSt13_Rb_tree_nodeIS5_E
0x00119bb0	49	_ZNSt8_Rb_treeIN4Json5Value8CZStringESt4pairIKS2_S1_ESt10_Select1stIS5_ESt4lessIS2_ESaIS5_EE13_Rb_tree_implIS9_Lb0EE13_M_initializeEv
0x00118a84	132	_ZNSt8_Rb_treeIN4Json5Value8CZStringESt4pairIKS2_S1_ESt10_Select1stIS5_ESt4lessIS2_ESaIS5_EE13_Rb_tree_implIS9_Lb0EEC1ERKS9_RKSaISt13_Rb_tree_nodeIS5_EE
0x001189fe	125	_ZNSt8_Rb_treeIN4Json5Value8CZStringESt4pairIKS2_S1_ESt10_Select1stIS5_ESt4lessIS2_ESaIS5_EE13_Rb_tree_implIS9_Lb0EEC1Ev
0x00118a84	132	_ZNSt8_Rb_treeIN4Json5Value8CZStringESt4pairIKS2_S1_ESt10_Select1stIS5_ESt4lessIS2_ESaIS5_EE13_Rb_tree_implIS9_Lb0EEC2ERKS9_RKSaISt13_Rb_tree_nodeIS5_EE
0x001189fe	125	_ZNSt8_Rb_treeIN4Json5Value8CZStringESt4pairIKS2_S1_ESt10_Select1stIS5_ESt4lessIS2_ESaIS5_EE13_Rb_tree_implIS9_Lb0EEC2Ev
0x00116dc2	37	_ZNSt8_Rb_treeIN4Json5Value8CZStringESt4pairIKS2_S1_ESt10_Select1stIS5_ESt4lessIS2_ESaIS5_EE13_Rb_tree_implIS9_Lb0EED1Ev
0x00116dc2	37	_ZNSt8_Rb_treeIN4Json5Value8CZStringESt4pairIKS2_S1_ESt10_Select1stIS5_ESt4lessIS2_ESaIS5_EE13_Rb_tree_implIS9_Lb0EED2Ev
0x00119fb8	180	_ZNSt8_Rb_treeIN4Json5Value8CZStringESt4pairIKS2_S1_ESt10_Select1stIS5_ESt4lessIS2_ESaIS5_EE14_M_create_nodeERKS5_
0x001190de	140	_ZNSt8_Rb_treeIN4Json5Value8CZStringESt4pairIKS2_S1_ESt10_Select1stIS5_ESt4lessIS2_ESaIS5_EE14_M_lower_boundEPSt13_Rb_tree_nodeIS5_ESE_RS4_
0x00119e0e	137	_ZNSt8_Rb_treeIN4Json5Value8CZStringESt4pairIKS2_S1_ESt10_Select1stIS5_ESt4lessIS2_ESaIS5_EE14_M_upper_boundEPSt13_Rb_tree_nodeIS5_ESE_RS4_
0x00118ce4	132	_ZNSt8_Rb_treeIN4Json5Value8CZStringESt4pairIKS2_S1_ESt10_Select1stIS5_ESt4lessIS2_ESaIS5_EE15_M_destroy_nodeEPSt13_Rb_tree_nodeIS5_E
0x001192aa	490	_ZNSt8_Rb_treeIN4Json5Value8CZStringESt4pairIKS2_S1_ESt10_Select1stIS5_ESt4lessIS2_ESaIS5_EE16_M_insert_uniqueERKS5_
0x00117ad0	1018	_ZNSt8_Rb_treeIN4Json5Value8CZStringESt4pairIKS2_S1_ESt10_Select1stIS5_ESt4lessIS2_ESaIS5_EE17_M_insert_unique_ESt23_Rb_tree_const_iteratorIS5_ERKS5_
0x00117948	52	_ZNSt8_Rb_treeIN4Json5Value8CZStringESt4pairIKS2_S1_ESt10_Select1stIS5_ESt4lessIS2_ESaIS5_EE3endEv
0x00117eca	210	_ZNSt8_Rb_treeIN4Json5Value8CZStringESt4pairIKS2_S1_ESt10_Select1stIS5_ESt4lessIS2_ESaIS5_EE4findERS4_
0x0011808a	52	_ZNSt8_Rb_treeIN4Json5Value8CZStringESt4pairIKS2_S1_ESt10_Select1stIS5_ESt4lessIS2_ESaIS5_EE5beginEv
0x0011797c	133	_ZNSt8_Rb_treeIN4Json5Value8CZStringESt4pairIKS2_S1_ESt10_Select1stIS5_ESt4lessIS2_ESaIS5_EE5clearEv
0x00117a02	112	_ZNSt8_Rb_treeIN4Json5Value8CZStringESt4pairIKS2_S1_ESt10_Select1stIS5_ESt4lessIS2_ESaIS5_EE5eraseERS4_
0x00117f9c	62	_ZNSt8_Rb_treeIN4Json5Value8CZStringESt4pairIKS2_S1_ESt10_Select1stIS5_ESt4lessIS2_ESaIS5_EE5eraseESt17_Rb_tree_iteratorIS5_E
0x00119086	87	_ZNSt8_Rb_treeIN4Json5Value8CZStringESt4pairIKS2_S1_ESt10_Select1stIS5_ESt4lessIS2_ESaIS5_EE5eraseESt17_Rb_tree_iteratorIS5_ESD_
0x0011a730	44	_ZNSt8_Rb_treeIN4Json5Value8CZStringESt4pairIKS2_S1_ESt10_Select1stIS5_ESt4lessIS2_ESaIS5_EE5eraseESt23_Rb_tree_const_iteratorIS5_E
0x00118c50	11	_ZNSt8_Rb_treeIN4Json5Value8CZStringESt4pairIKS2_S1_ESt10_Select1stIS5_ESt4lessIS2_ESaIS5_EE6_M_endEv
0x00119dda	52	_ZNSt8_Rb_treeIN4Json5Value8CZStringESt4pairIKS2_S1_ESt10_Select1stIS5_ESt4lessIS2_ESaIS5_EE6_S_keyEPKSt13_Rb_tree_nodeIS5_E
0x0011916a	52	_ZNSt8_Rb_treeIN4Json5Value8CZStringESt4pairIKS2_S1_ESt10_Select1stIS5_ESt4lessIS2_ESaIS5_EE6_S_keyEPKSt18_Rb_tree_node_base
0x00118b14	303	_ZNSt8_Rb_treeIN4Json5Value8CZStringESt4pairIKS2_S1_ESt10_Select1stIS5_ESt4lessIS2_ESaIS5_EE7_M_copyEPKSt13_Rb_tree_nodeIS5_EPSD_
0x00118c5c	11	_ZNSt8_Rb_treeIN4Json5Value8CZStringESt4pairIKS2_S1_ESt10_Select1stIS5_ESt4lessIS2_ESaIS5_EE7_M_rootEv
0x00119c61	11	_ZNSt8_Rb_treeIN4Json5Value8CZStringESt4pairIKS2_S1_ESt10_Select1stIS5_ESt4lessIS2_ESaIS5_EE7_S_leftEPKSt18_Rb_tree_node_base
0x00118cd8	11	_ZNSt8_Rb_treeIN4Json5Value8CZStringESt4pairIKS2_S1_ESt10_Select1stIS5_ESt4lessIS2_ESaIS5_EE7_S_leftEPSt18_Rb_tree_node_base
0x001177ee	11	_ZNSt8_Rb_treeIN4Json5Value8CZStringESt4pairIKS2_S1_ESt10_Select1stIS5_ESt4lessIS2_ESaIS5_EE8_M_beginEv
0x00117786	103	_ZNSt8_Rb_treeIN4Json5Value8CZStringESt4pairIKS2_S1_ESt10_Select1stIS5_ESt4lessIS2_ESaIS5_EE8_M_eraseEPSt13_Rb_tree_nodeIS5_E
0x00119494	11	_ZNSt8_Rb_treeIN4Json5Value8CZStringESt4pairIKS2_S1_ESt10_Select1stIS5_ESt4lessIS2_ESaIS5_EE8_S_rightEPKSt18_Rb_tree_node_base
0x00118ccd	11	_ZNSt8_Rb_treeIN4Json5Value8CZStringESt4pairIKS2_S1_ESt10_Select1stIS5_ESt4lessIS2_ESaIS5_EE8_S_rightEPSt18_Rb_tree_node_base
0x0011a6e8	11	_ZNSt8_Rb_treeIN4Json5Value8CZStringESt4pairIKS2_S1_ESt10_Select1stIS5_ESt4lessIS2_ESaIS5_EE8_S_valueEPKSt13_Rb_tree_nodeIS5_E
0x00119fac	11	_ZNSt8_Rb_treeIN4Json5Value8CZStringESt4pairIKS2_S1_ESt10_Select1stIS5_ESt4lessIS2_ESaIS5_EE8_S_valueEPKSt18_Rb_tree_node_base
0x0011765e	257	_ZNSt8_Rb_treeIN4Json5Value8CZStringESt4pairIKS2_S1_ESt10_Select1stIS5_ESt4lessIS2_ESaIS5_EEC1ERKSB_
0x00117638	37	_ZNSt8_Rb_treeIN4Json5Value8CZStringESt4pairIKS2_S1_ESt10_Select1stIS5_ESt4lessIS2_ESaIS5_EEC1Ev
0x0011765e	257	_ZNSt8_Rb_treeIN4Json5Value8CZStringESt4pairIKS2_S1_ESt10_Select1stIS5_ESt4lessIS2_ESaIS5_EEC2ERKSB_
0x00117638	37	_ZNSt8_Rb_treeIN4Json5Value8CZStringESt4pairIKS2_S1_ESt10_Select1stIS5_ESt4lessIS2_ESaIS5_EEC2Ev
0x00116de8	88	_ZNSt8_Rb_treeIN4Json5Value8CZStringESt4pairIKS2_S1_ESt10_Select1stIS5_ESt4lessIS2_ESaIS5_EED1Ev
0x00116de8	88	_ZNSt8_Rb_treeIN4Json5Value8CZStringESt4pairIKS2_S1_ESt10_Select1stIS5_ESt4lessIS2_ESaIS5_EED2Ev
0x000a74c4	216	_ZNSt8_Rb_treeIN5L6UUE12ConstraintIDESt4pairIKS1_NS0_3AnyEESt10_Select1stIS5_ESt4lessIS1_ESaIS5_EE10_M_insert_EPKSt18_Rb_tree_node_baseSE_RKS5_
0x000a85b2	53	_ZNSt8_Rb_treeIN5L6UUE12ConstraintIDESt4pairIKS1_NS0_3AnyEESt10_Select1stIS5_ESt4lessIS1_ESaIS5_EE11_M_get_nodeEv
0x000a5ca0	11	_ZNSt8_Rb_treeIN5L6UUE12ConstraintIDESt4pairIKS1_NS0_3AnyEESt10_Select1stIS5_ESt4lessIS1_ESaIS5_EE11_M_leftmostEv
0x000a80b0	52	_ZNSt8_Rb_treeIN5L6UUE12ConstraintIDESt4pairIKS1_NS0_3AnyEESt10_Select1stIS5_ESt4lessIS1_ESaIS5_EE11_M_put_nodeEPSt13_Rb_tree_nodeIS5_E
0x000a5cc4	94	_ZNSt8_Rb_treeIN5L6UUE12ConstraintIDESt4pairIKS1_NS0_3AnyEESt10_Select1stIS5_ESt4lessIS1_ESaIS5_EE11lower_boundERS3_
0x000a5cb8	11	_ZNSt8_Rb_treeIN5L6UUE12ConstraintIDESt4pairIKS1_NS0_3AnyEESt10_Select1stIS5_ESt4lessIS1_ESaIS5_EE12_M_rightmostEv
0x000acf98	49	_ZNSt8_Rb_treeIN5L6UUE12ConstraintIDESt4pairIKS1_NS0_3AnyEESt10_Select1stIS5_ESt4lessIS1_ESaIS5_EE13_Rb_tree_implIS9_Lb0EE13_M_initializeEv
0x000ac4e2	125	_ZNSt8_Rb_treeIN5L6UUE12ConstraintIDESt4pairIKS1_NS0_3AnyEESt10_Select1stIS5_ESt4lessIS1_ESaIS5_EE13_Rb_tree_implIS9_Lb0EEC1Ev
0x000ac4e2	125	_ZNSt8_Rb_treeIN5L6UUE12ConstraintIDESt4pairIKS1_NS0_3AnyEESt10_Select1stIS5_ESt4lessIS1_ESaIS5_EE13_Rb_tree_implIS9_Lb0EEC2Ev
0x000ab4e4	37	_ZNSt8_Rb_treeIN5L6UUE12ConstraintIDESt4pairIKS1_NS0_3AnyEESt10_Select1stIS5_ESt4lessIS1_ESaIS5_EE13_Rb_tree_implIS9_Lb0EED1Ev
0x000ab4e4	37	_ZNSt8_Rb_treeIN5L6UUE12ConstraintIDESt4pairIKS1_NS0_3AnyEESt10_Select1stIS5_ESt4lessIS1_ESaIS5_EE13_Rb_tree_implIS9_Lb0EED2Ev
0x000a80e4	180	_ZNSt8_Rb_treeIN5L6UUE12ConstraintIDESt4pairIKS1_NS0_3AnyEESt10_Select1stIS5_ESt4lessIS1_ESaIS5_EE14_M_create_nodeERKS5_
0x000a0138	140	_ZNSt8_Rb_treeIN5L6UUE12ConstraintIDESt4pairIKS1_NS0_3AnyEESt10_Select1stIS5_ESt4lessIS1_ESaIS5_EE14_M_lower_boundEPSt13_Rb_tree_nodeIS5_ESE_RS3_
0x000a7440	132	_ZNSt8_Rb_treeIN5L6UUE12ConstraintIDESt4pairIKS1_NS0_3AnyEESt10_Select1stIS5_ESt4lessIS1_ESaIS5_EE15_M_destroy_nodeEPSt13_Rb_tree_nodeIS5_E
0x000a759c	490	_ZNSt8_Rb_treeIN5L6UUE12ConstraintIDESt4pairIKS1_NS0_3AnyEESt10_Select1stIS5_ESt4lessIS1_ESaIS5_EE16_M_insert_uniqueERKS5_
0x000a5d3e	1018	_ZNSt8_Rb_treeIN5L6UUE12ConstraintIDESt4pairIKS1_NS0_3AnyEESt10_Select1stIS5_ESt4lessIS1_ESaIS5_EE17_M_insert_unique_ESt23_Rb_tree_const_iteratorIS5_ERKS5_
0x0009faec	52	_ZNSt8_Rb_treeIN5L6UUE12ConstraintIDESt4pairIKS1_NS0_3AnyEESt10_Select1stIS5_ESt4lessIS1_ESaIS5_EE3endEv
0x0009fa1a	210	_ZNSt8_Rb_treeIN5L6UUE12ConstraintIDESt4pairIKS1_NS0_3AnyEESt10_Select1stIS5_ESt4lessIS1_ESaIS5_EE4findERS3_
0x000a45fa	52	_ZNSt8_Rb_treeIN5L6UUE12ConstraintIDESt4pairIKS1_NS0_3AnyEESt10_Select1stIS5_ESt4lessIS1_ESaIS5_EE5beginEv
0x000a462e	133	_ZNSt8_Rb_treeIN5L6UUE12ConstraintIDESt4pairIKS1_NS0_3AnyEESt10_Select1stIS5_ESt4lessIS1_ESaIS5_EE5clearEv
0x000a012c	11	_ZNSt8_Rb_treeIN5L6UUE12ConstraintIDESt4pairIKS1_NS0_3AnyEESt10_Select1stIS5_ESt4lessIS1_ESaIS5_EE6_M_endEv
0x000a05f2	52	_ZNSt8_Rb_treeIN5L6UUE12ConstraintIDESt4pairIKS1_NS0_3AnyEESt10_Select1stIS5_ESt4lessIS1_ESaIS5_EE6_S_keyEPKSt13_Rb_tree_nodeIS5_E
0x000a01c4	52	_ZNSt8_Rb_treeIN5L6UUE12ConstraintIDESt4pairIKS1_NS0_3AnyEESt10_Select1stIS5_ESt4lessIS1_ESaIS5_EE6_S_keyEPKSt18_Rb_tree_node_base
0x000a5cac	11	_ZNSt8_Rb_treeIN5L6UUE12ConstraintIDESt4pairIKS1_NS0_3AnyEESt10_Select1stIS5_ESt4lessIS1_ESaIS5_EE7_M_rootEv
0x000a0626	11	_ZNSt8_Rb_treeIN5L6UUE12ConstraintIDESt4pairIKS1_NS0_3AnyEESt10_Select1stIS5_ESt4lessIS1_ESaIS5_EE7_S_leftEPSt18_Rb_tree_node_base
0x000a0120	11	_ZNSt8_Rb_treeIN5L6UUE12ConstraintIDESt4pairIKS1_NS0_3AnyEESt10_Select1stIS5_ESt4lessIS1_ESaIS5_EE8_M_beginEv
0x000a5c38	103	_ZNSt8_Rb_treeIN5L6UUE12ConstraintIDESt4pairIKS1_NS0_3AnyEESt10_Select1stIS5_ESt4lessIS1_ESaIS5_EE8_M_eraseEPSt13_Rb_tree_nodeIS5_E
0x000a77b5	11	_ZNSt8_Rb_treeIN5L6UUE12ConstraintIDESt4pairIKS1_NS0_3AnyEESt10_Select1stIS5_ESt4lessIS1_ESaIS5_EE8_S_rightEPKSt18_Rb_tree_node_base
0x000a0631	11	_ZNSt8_Rb_treeIN5L6UUE12ConstraintIDESt4pairIKS1_NS0_3AnyEESt10_Select1stIS5_ESt4lessIS1_ESaIS5_EE8_S_rightEPSt18_Rb_tree_node_base
0x000a0789	11	_ZNSt8_Rb_treeIN5L6UUE12ConstraintIDESt4pairIKS1_NS0_3AnyEESt10_Select1stIS5_ESt4lessIS1_ESaIS5_EE8_S_valueEPKSt13_Rb_tree_nodeIS5_E
0x000a063c	11	_ZNSt8_Rb_treeIN5L6UUE12ConstraintIDESt4pairIKS1_NS0_3AnyEESt10_Select1stIS5_ESt4lessIS1_ESaIS5_EE8_S_valueEPKSt18_Rb_tree_node_base
0x000abd70	37	_ZNSt8_Rb_treeIN5L6UUE12ConstraintIDESt4pairIKS1_NS0_3AnyEESt10_Select1stIS5_ESt4lessIS1_ESaIS5_EEC1Ev
0x000abd70	37	_ZNSt8_Rb_treeIN5L6UUE12ConstraintIDESt4pairIKS1_NS0_3AnyEESt10_Select1stIS5_ESt4lessIS1_ESaIS5_EEC2Ev
0x000ab50a	88	_ZNSt8_Rb_treeIN5L6UUE12ConstraintIDESt4pairIKS1_NS0_3AnyEESt10_Select1stIS5_ESt4lessIS1_ESaIS5_EED1Ev
0x000ab50a	88	_ZNSt8_Rb_treeIN5L6UUE12ConstraintIDESt4pairIKS1_NS0_3AnyEESt10_Select1stIS5_ESt4lessIS1_ESaIS5_EED2Ev
0x000a0228	216	_ZNSt8_Rb_treeIN5L6UUE13UpdateCommandESt4pairIKS1_iESt10_Select1stIS4_ESt4lessIS1_ESaIS4_EE10_M_insert_EPKSt18_Rb_tree_node_baseSD_RKS4_
0x000a0794	53	_ZNSt8_Rb_treeIN5L6UUE13UpdateCommandESt4pairIKS1_iESt10_Select1stIS4_ESt4lessIS1_ESaIS4_EE11_M_get_nodeEv
0x0009ff9c	11	_ZNSt8_Rb_treeIN5L6UUE13UpdateCommandESt4pairIKS1_iESt10_Select1stIS4_ESt4lessIS1_ESaIS4_EE11_M_leftmostEv
0x000a00a4	52	_ZNSt8_Rb_treeIN5L6UUE13UpdateCommandESt4pairIKS1_iESt10_Select1stIS4_ESt4lessIS1_ESaIS4_EE11_M_put_nodeEPSt13_Rb_tree_nodeIS4_E
0x0009fb28	94	_ZNSt8_Rb_treeIN5L6UUE13UpdateCommandESt4pairIKS1_iESt10_Select1stIS4_ESt4lessIS1_ESaIS4_EE11lower_boundERS3_
0x0009ffb4	11	_ZNSt8_Rb_treeIN5L6UUE13UpdateCommandESt4pairIKS1_iESt10_Select1stIS4_ESt4lessIS1_ESaIS4_EE12_M_rightmostEv
0x0009ffe6	49	_ZNSt8_Rb_treeIN5L6UUE13UpdateCommandESt4pairIKS1_iESt10_Select1stIS4_ESt4lessIS1_ESaIS4_EE13_Rb_tree_implIS8_Lb0EE13_M_initializeEv
0x0009f822	125	_ZNSt8_Rb_treeIN5L6UUE13UpdateCommandESt4pairIKS1_iESt10_Select1stIS4_ESt4lessIS1_ESaIS4_EE13_Rb_tree_implIS8_Lb0EEC1Ev
0x0009f822	125	_ZNSt8_Rb_treeIN5L6UUE13UpdateCommandESt4pairIKS1_iESt10_Select1stIS4_ESt4lessIS1_ESaIS4_EE13_Rb_tree_implIS8_Lb0EEC2Ev
0x0009e6fc	37	_ZNSt8_Rb_treeIN5L6UUE13UpdateCommandESt4pairIKS1_iESt10_Select1stIS4_ESt4lessIS1_ESaIS4_EE13_Rb_tree_implIS8_Lb0EED1Ev
0x0009e6fc	37	_ZNSt8_Rb_treeIN5L6UUE13UpdateCommandESt4pairIKS1_iESt10_Select1stIS4_ESt4lessIS1_ESaIS4_EE13_Rb_tree_implIS8_Lb0EED2Ev
0x000a0650	180	_ZNSt8_Rb_treeIN5L6UUE13UpdateCommandESt4pairIKS1_iESt10_Select1stIS4_ESt4lessIS1_ESaIS4_EE14_M_create_nodeERKS4_
0x0009f94c	140	_ZNSt8_Rb_treeIN5L6UUE13UpdateCommandESt4pairIKS1_iESt10_Select1stIS4_ESt4lessIS1_ESaIS4_EE14_M_lower_boundEPSt13_Rb_tree_nodeIS4_ESD_RS3_
0x0009f8bc	132	_ZNSt8_Rb_treeIN5L6UUE13UpdateCommandESt4pairIKS1_iESt10_Select1stIS4_ESt4lessIS1_ESaIS4_EE15_M_destroy_nodeEPSt13_Rb_tree_nodeIS4_E
0x000a0300	490	_ZNSt8_Rb_treeIN5L6UUE13UpdateCommandESt4pairIKS1_iESt10_Select1stIS4_ESt4lessIS1_ESaIS4_EE16_M_insert_uniqueERKS4_
0x0009fba2	1018	_ZNSt8_Rb_treeIN5L6UUE13UpdateCommandESt4pairIKS1_iESt10_Select1stIS4_ESt4lessIS1_ESaIS4_EE17_M_insert_unique_ESt23_Rb_tree_const_iteratorIS4_ERKS4_
0x0009f55c	52	_ZNSt8_Rb_treeIN5L6UUE13UpdateCommandESt4pairIKS1_iESt10_Select1stIS4_ESt4lessIS1_ESaIS4_EE3endEv
0x0009f48a	210	_ZNSt8_Rb_treeIN5L6UUE13UpdateCommandESt4pairIKS1_iESt10_Select1stIS4_ESt4lessIS1_ESaIS4_EE4findERS3_
0x000a0704	52	_ZNSt8_Rb_treeIN5L6UUE13UpdateCommandESt4pairIKS1_iESt10_Select1stIS4_ESt4lessIS1_ESaIS4_EE5beginEv
0x0009f760	133	_ZNSt8_Rb_treeIN5L6UUE13UpdateCommandESt4pairIKS1_iESt10_Select1stIS4_ESt4lessIS1_ESaIS4_EE5clearEv
0x0009f940	11	_ZNSt8_Rb_treeIN5L6UUE13UpdateCommandESt4pairIKS1_iESt10_Select1stIS4_ESt4lessIS1_ESaIS4_EE6_M_endEv
0x000a00d8	52	_ZNSt8_Rb_treeIN5L6UUE13UpdateCommandESt4pairIKS1_iESt10_Select1stIS4_ESt4lessIS1_ESaIS4_EE6_S_keyEPKSt13_Rb_tree_nodeIS4_E
0x0009f9d8	52	_ZNSt8_Rb_treeIN5L6UUE13UpdateCommandESt4pairIKS1_iESt10_Select1stIS4_ESt4lessIS1_ESaIS4_EE6_S_keyEPKSt18_Rb_tree_node_base
0x0009ffa8	11	_ZNSt8_Rb_treeIN5L6UUE13UpdateCommandESt4pairIKS1_iESt10_Select1stIS4_ESt4lessIS1_ESaIS4_EE7_M_rootEv
0x0009f8b0	11	_ZNSt8_Rb_treeIN5L6UUE13UpdateCommandESt4pairIKS1_iESt10_Select1stIS4_ESt4lessIS1_ESaIS4_EE7_S_leftEPSt18_Rb_tree_node_base
0x0009f47e	11	_ZNSt8_Rb_treeIN5L6UUE13UpdateCommandESt4pairIKS1_iESt10_Select1stIS4_ESt4lessIS1_ESaIS4_EE8_M_beginEv
0x0009f416	103	_ZNSt8_Rb_treeIN5L6UUE13UpdateCommandESt4pairIKS1_iESt10_Select1stIS4_ESt4lessIS1_ESaIS4_EE8_M_eraseEPSt13_Rb_tree_nodeIS4_E
0x000a0519	11	_ZNSt8_Rb_treeIN5L6UUE13UpdateCommandESt4pairIKS1_iESt10_Select1stIS4_ESt4lessIS1_ESaIS4_EE8_S_rightEPKSt18_Rb_tree_node_base
0x0009f8a5	11	_ZNSt8_Rb_treeIN5L6UUE13UpdateCommandESt4pairIKS1_iESt10_Select1stIS4_ESt4lessIS1_ESaIS4_EE8_S_rightEPSt18_Rb_tree_node_base
0x000a05e7	11	_ZNSt8_Rb_treeIN5L6UUE13UpdateCommandESt4pairIKS1_iESt10_Select1stIS4_ESt4lessIS1_ESaIS4_EE8_S_valueEPKSt13_Rb_tree_nodeIS4_E
0x000a010c	11	_ZNSt8_Rb_treeIN5L6UUE13UpdateCommandESt4pairIKS1_iESt10_Select1stIS4_ESt4lessIS1_ESaIS4_EE8_S_valueEPKSt18_Rb_tree_node_base
0x0009f3ca	37	_ZNSt8_Rb_treeIN5L6UUE13UpdateCommandESt4pairIKS1_iESt10_Select1stIS4_ESt4lessIS1_ESaIS4_EEC1Ev
0x0009f3ca	37	_ZNSt8_Rb_treeIN5L6UUE13UpdateCommandESt4pairIKS1_iESt10_Select1stIS4_ESt4lessIS1_ESaIS4_EEC2Ev
0x0009e722	88	_ZNSt8_Rb_treeIN5L6UUE13UpdateCommandESt4pairIKS1_iESt10_Select1stIS4_ESt4lessIS1_ESaIS4_EED1Ev
0x0009e722	88	_ZNSt8_Rb_treeIN5L6UUE13UpdateCommandESt4pairIKS1_iESt10_Select1stIS4_ESt4lessIS1_ESaIS4_EED2Ev
0x000a70e0	216	_ZNSt8_Rb_treeIN5L6UUE13UpdateParamIDESt4pairIKS1_NS0_3AnyEESt10_Select1stIS5_ESt4lessIS1_ESaIS5_EE10_M_insert_EPKSt18_Rb_tree_node_baseSE_RKS5_
0x000a84de	53	_ZNSt8_Rb_treeIN5L6UUE13UpdateParamIDESt4pairIKS1_NS0_3AnyEESt10_Select1stIS5_ESt4lessIS1_ESaIS5_EE11_M_get_nodeEv
0x000a57a0	11	_ZNSt8_Rb_treeIN5L6UUE13UpdateParamIDESt4pairIKS1_NS0_3AnyEESt10_Select1stIS5_ESt4lessIS1_ESaIS5_EE11_M_leftmostEv
0x000a7eb0	52	_ZNSt8_Rb_treeIN5L6UUE13UpdateParamIDESt4pairIKS1_NS0_3AnyEESt10_Select1stIS5_ESt4lessIS1_ESaIS5_EE11_M_put_nodeEPSt13_Rb_tree_nodeIS5_E
0x000a57c4	94	_ZNSt8_Rb_treeIN5L6UUE13UpdateParamIDESt4pairIKS1_NS0_3AnyEESt10_Select1stIS5_ESt4lessIS1_ESaIS5_EE11lower_boundERS3_
0x000a57b8	11	_ZNSt8_Rb_treeIN5L6UUE13UpdateParamIDESt4pairIKS1_NS0_3AnyEESt10_Select1stIS5_ESt4lessIS1_ESaIS5_EE12_M_rightmostEv
0x000acf40	49	_ZNSt8_Rb_treeIN5L6UUE13UpdateParamIDESt4pairIKS1_NS0_3AnyEESt10_Select1stIS5_ESt4lessIS1_ESaIS5_EE13_Rb_tree_implIS9_Lb0EE13_M_initializeEv
0x000ac45e	125	_ZNSt8_Rb_treeIN5L6UUE13UpdateParamIDESt4pairIKS1_NS0_3AnyEESt10_Select1stIS5_ESt4lessIS1_ESaIS5_EE13_Rb_tree_implIS9_Lb0EEC1Ev
0x000ac45e	125	_ZNSt8_Rb_treeIN5L6UUE13UpdateParamIDESt4pairIKS1_NS0_3AnyEESt10_Select1stIS5_ESt4lessIS1_ESaIS5_EE13_Rb_tree_implIS9_Lb0EEC2Ev
0x000ab440	37	_ZNSt8_Rb_treeIN5L6UUE13UpdateParamIDESt4pairIKS1_NS0_3AnyEESt10_Select1stIS5_ESt4lessIS1_ESaIS5_EE13_Rb_tree_implIS9_Lb0EED1Ev
0x000ab440	37	_ZNSt8_Rb_treeIN5L6UUE13UpdateParamIDESt4pairIKS1_NS0_3AnyEESt10_Select1stIS5_ESt4lessIS1_ESaIS5_EE13_Rb_tree_implIS9_Lb0EED2Ev
0x000a7f24	180	_ZNSt8_Rb_treeIN5L6UUE13UpdateParamIDESt4pairIKS1_NS0_3AnyEESt10_Select1stIS5_ESt4lessIS1_ESaIS5_EE14_M_create_nodeERKS5_
0x000a7018	140	_ZNSt8_Rb_treeIN5L6UUE13UpdateParamIDESt4pairIKS1_NS0_3AnyEESt10_Select1stIS5_ESt4lessIS1_ESaIS5_EE14_M_lower_boundEPSt13_Rb_tree_nodeIS5_ESE_RS3_
0x000a6f94	132	_ZNSt8_Rb_treeIN5L6UUE13UpdateParamIDESt4pairIKS1_NS0_3AnyEESt10_Select1stIS5_ESt4lessIS1_ESaIS5_EE15_M_destroy_nodeEPSt13_Rb_tree_nodeIS5_E
0x000a71b8	490	_ZNSt8_Rb_treeIN5L6UUE13UpdateParamIDESt4pairIKS1_NS0_3AnyEESt10_Select1stIS5_ESt4lessIS1_ESaIS5_EE16_M_insert_uniqueERKS5_
0x000a583e	1018	_ZNSt8_Rb_treeIN5L6UUE13UpdateParamIDESt4pairIKS1_NS0_3AnyEESt10_Select1stIS5_ESt4lessIS1_ESaIS5_EE17_M_insert_unique_ESt23_Rb_tree_const_iteratorIS5_ERKS5_
0x000a4416	52	_ZNSt8_Rb_treeIN5L6UUE13UpdateParamIDESt4pairIKS1_NS0_3AnyEESt10_Select1stIS5_ESt4lessIS1_ESaIS5_EE3endEv
0x000a43e2	52	_ZNSt8_Rb_treeIN5L6UUE13UpdateParamIDESt4pairIKS1_NS0_3AnyEESt10_Select1stIS5_ESt4lessIS1_ESaIS5_EE5beginEv
0x000a4452	133	_ZNSt8_Rb_treeIN5L6UUE13UpdateParamIDESt4pairIKS1_NS0_3AnyEESt10_Select1stIS5_ESt4lessIS1_ESaIS5_EE5clearEv
0x000a5794	11	_ZNSt8_Rb_treeIN5L6UUE13UpdateParamIDESt4pairIKS1_NS0_3AnyEESt10_Select1stIS5_ESt4lessIS1_ESaIS5_EE6_M_endEv
0x000a7ee4	52	_ZNSt8_Rb_treeIN5L6UUE13UpdateParamIDESt4pairIKS1_NS0_3AnyEESt10_Select1stIS5_ESt4lessIS1_ESaIS5_EE6_S_keyEPKSt13_Rb_tree_nodeIS5_E
0x000a70a4	52	_ZNSt8_Rb_treeIN5L6UUE13UpdateParamIDESt4pairIKS1_NS0_3AnyEESt10_Select1stIS5_ESt4lessIS1_ESaIS5_EE6_S_keyEPKSt18_Rb_tree_node_base
0x000a57ac	11	_ZNSt8_Rb_treeIN5L6UUE13UpdateParamIDESt4pairIKS1_NS0_3AnyEESt10_Select1stIS5_ESt4lessIS1_ESaIS5_EE7_M_rootEv
0x000a6f88	11	_ZNSt8_Rb_treeIN5L6UUE13UpdateParamIDESt4pairIKS1_NS0_3AnyEESt10_Select1stIS5_ESt4lessIS1_ESaIS5_EE7_S_leftEPSt18_Rb_tree_node_base
0x000a5788	11	_ZNSt8_Rb_treeIN5L6UUE13UpdateParamIDESt4pairIKS1_NS0_3AnyEESt10_Select1stIS5_ESt4lessIS1_ESaIS5_EE8_M_beginEv
0x000a5720	103	_ZNSt8_Rb_treeIN5L6UUE13UpdateParamIDESt4pairIKS1_NS0_3AnyEESt10_Select1stIS5_ESt4lessIS1_ESaIS5_EE8_M_eraseEPSt13_Rb_tree_nodeIS5_E
0x000a73d1	11	_ZNSt8_Rb_treeIN5L6UUE13UpdateParamIDESt4pairIKS1_NS0_3AnyEESt10_Select1stIS5_ESt4lessIS1_ESaIS5_EE8_S_rightEPKSt18_Rb_tree_node_base
0x000a6f7d	11	_ZNSt8_Rb_treeIN5L6UUE13UpdateParamIDESt4pairIKS1_NS0_3AnyEESt10_Select1stIS5_ESt4lessIS1_ESaIS5_EE8_S_rightEPSt18_Rb_tree_node_base
0x000a84d3	11	_ZNSt8_Rb_treeIN5L6UUE13UpdateParamIDESt4pairIKS1_NS0_3AnyEESt10_Select1stIS5_ESt4lessIS1_ESaIS5_EE8_S_valueEPKSt13_Rb_tree_nodeIS5_E
0x000a7f18	11	_ZNSt8_Rb_treeIN5L6UUE13UpdateParamIDESt4pairIKS1_NS0_3AnyEESt10_Select1stIS5_ESt4lessIS1_ESaIS5_EE8_S_valueEPKSt18_Rb_tree_node_base
0x000abd24	37	_ZNSt8_Rb_treeIN5L6UUE13UpdateParamIDESt4pairIKS1_NS0_3AnyEESt10_Select1stIS5_ESt4lessIS1_ESaIS5_EEC1Ev
0x000abd24	37	_ZNSt8_Rb_treeIN5L6UUE13UpdateParamIDESt4pairIKS1_NS0_3AnyEESt10_Select1stIS5_ESt4lessIS1_ESaIS5_EEC2Ev
0x000ab466	88	_ZNSt8_Rb_treeIN5L6UUE13UpdateParamIDESt4pairIKS1_NS0_3AnyEESt10_Select1stIS5_ESt4lessIS1_ESaIS5_EED1Ev
0x000ab466	88	_ZNSt8_Rb_treeIN5L6UUE13UpdateParamIDESt4pairIKS1_NS0_3AnyEESt10_Select1stIS5_ESt4lessIS1_ESaIS5_EED2Ev
0x000a629a	216	_ZNSt8_Rb_treeIN5L6UUE8DevCapIDESt4pairIKS1_bESt10_Select1stIS4_ESt4lessIS1_ESaIS4_EE10_M_insert_EPKSt18_Rb_tree_node_baseSD_RKS4_
0x000a8248	53	_ZNSt8_Rb_treeIN5L6UUE8DevCapIDESt4pairIKS1_bESt10_Select1stIS4_ESt4lessIS1_ESaIS4_EE11_M_get_nodeEv
0x000a482e	11	_ZNSt8_Rb_treeIN5L6UUE8DevCapIDESt4pairIKS1_bESt10_Select1stIS4_ESt4lessIS1_ESaIS4_EE11_M_leftmostEv
0x000a78b0	52	_ZNSt8_Rb_treeIN5L6UUE8DevCapIDESt4pairIKS1_bESt10_Select1stIS4_ESt4lessIS1_ESaIS4_EE11_M_put_nodeEPSt13_Rb_tree_nodeIS4_E
0x000a4852	94	_ZNSt8_Rb_treeIN5L6UUE8DevCapIDESt4pairIKS1_bESt10_Select1stIS4_ESt4lessIS1_ESaIS4_EE11lower_boundERS3_
0x000a4846	11	_ZNSt8_Rb_treeIN5L6UUE8DevCapIDESt4pairIKS1_bESt10_Select1stIS4_ESt4lessIS1_ESaIS4_EE12_M_rightmostEv
0x000ace4a	49	_ZNSt8_Rb_treeIN5L6UUE8DevCapIDESt4pairIKS1_bESt10_Select1stIS4_ESt4lessIS1_ESaIS4_EE13_Rb_tree_implIS8_Lb0EE13_M_initializeEv
0x000ac27c	125	_ZNSt8_Rb_treeIN5L6UUE8DevCapIDESt4pairIKS1_bESt10_Select1stIS4_ESt4lessIS1_ESaIS4_EE13_Rb_tree_implIS8_Lb0EEC1Ev
0x000ac27c	125	_ZNSt8_Rb_treeIN5L6UUE8DevCapIDESt4pairIKS1_bESt10_Select1stIS4_ESt4lessIS1_ESaIS4_EE13_Rb_tree_implIS8_Lb0EEC2Ev
0x000ab132	37	_ZNSt8_Rb_treeIN5L6UUE8DevCapIDESt4pairIKS1_bESt10_Select1stIS4_ESt4lessIS1_ESaIS4_EE13_Rb_tree_implIS8_Lb0EED1Ev
0x000ab132	37	_ZNSt8_Rb_treeIN5L6UUE8DevCapIDESt4pairIKS1_bESt10_Select1stIS4_ESt4lessIS1_ESaIS4_EE13_Rb_tree_implIS8_Lb0EED2Ev
0x000a7924	180	_ZNSt8_Rb_treeIN5L6UUE8DevCapIDESt4pairIKS1_bESt10_Select1stIS4_ESt4lessIS1_ESaIS4_EE14_M_create_nodeERKS4_
0x000a61d2	140	_ZNSt8_Rb_treeIN5L6UUE8DevCapIDESt4pairIKS1_bESt10_Select1stIS4_ESt4lessIS1_ESaIS4_EE14_M_lower_boundEPSt13_Rb_tree_nodeIS4_ESD_RS3_
0x000a614e	132	_ZNSt8_Rb_treeIN5L6UUE8DevCapIDESt4pairIKS1_bESt10_Select1stIS4_ESt4lessIS1_ESaIS4_EE15_M_destroy_nodeEPSt13_Rb_tree_nodeIS4_E
0x000a6372	490	_ZNSt8_Rb_treeIN5L6UUE8DevCapIDESt4pairIKS1_bESt10_Select1stIS4_ESt4lessIS1_ESaIS4_EE16_M_insert_uniqueERKS4_
0x000a48cc	1018	_ZNSt8_Rb_treeIN5L6UUE8DevCapIDESt4pairIKS1_bESt10_Select1stIS4_ESt4lessIS1_ESaIS4_EE17_M_insert_unique_ESt23_Rb_tree_const_iteratorIS4_ERKS4_
0x000a3dd2	52	_ZNSt8_Rb_treeIN5L6UUE8DevCapIDESt4pairIKS1_bESt10_Select1stIS4_ESt4lessIS1_ESaIS4_EE3endEv
0x000acc40	210	_ZNSt8_Rb_treeIN5L6UUE8DevCapIDESt4pairIKS1_bESt10_Select1stIS4_ESt4lessIS1_ESaIS4_EE4findERS3_
0x000a3d9e	52	_ZNSt8_Rb_treeIN5L6UUE8DevCapIDESt4pairIKS1_bESt10_Select1stIS4_ESt4lessIS1_ESaIS4_EE5beginEv
0x000a3e0e	133	_ZNSt8_Rb_treeIN5L6UUE8DevCapIDESt4pairIKS1_bESt10_Select1stIS4_ESt4lessIS1_ESaIS4_EE5clearEv
0x000a4822	11	_ZNSt8_Rb_treeIN5L6UUE8DevCapIDESt4pairIKS1_bESt10_Select1stIS4_ESt4lessIS1_ESaIS4_EE6_M_endEv
0x000a78e4	52	_ZNSt8_Rb_treeIN5L6UUE8DevCapIDESt4pairIKS1_bESt10_Select1stIS4_ESt4lessIS1_ESaIS4_EE6_S_keyEPKSt13_Rb_tree_nodeIS4_E
0x000a625e	52	_ZNSt8_Rb_treeIN5L6UUE8DevCapIDESt4pairIKS1_bESt10_Select1stIS4_ESt4lessIS1_ESaIS4_EE6_S_keyEPKSt18_Rb_tree_node_base
0x000a483a	11	_ZNSt8_Rb_treeIN5L6UUE8DevCapIDESt4pairIKS1_bESt10_Select1stIS4_ESt4lessIS1_ESaIS4_EE7_M_rootEv
0x000a6143	11	_ZNSt8_Rb_treeIN5L6UUE8DevCapIDESt4pairIKS1_bESt10_Select1stIS4_ESt4lessIS1_ESaIS4_EE7_S_leftEPSt18_Rb_tree_node_base
0x000a4816	11	_ZNSt8_Rb_treeIN5L6UUE8DevCapIDESt4pairIKS1_bESt10_Select1stIS4_ESt4lessIS1_ESaIS4_EE8_M_beginEv
0x000a47ae	103	_ZNSt8_Rb_treeIN5L6UUE8DevCapIDESt4pairIKS1_bESt10_Select1stIS4_ESt4lessIS1_ESaIS4_EE8_M_eraseEPSt13_Rb_tree_nodeIS4_E
0x000a658b	11	_ZNSt8_Rb_treeIN5L6UUE8DevCapIDESt4pairIKS1_bESt10_Select1stIS4_ESt4lessIS1_ESaIS4_EE8_S_rightEPKSt18_Rb_tree_node_base
0x000a6138	11	_ZNSt8_Rb_treeIN5L6UUE8DevCapIDESt4pairIKS1_bESt10_Select1stIS4_ESt4lessIS1_ESaIS4_EE8_S_rightEPSt18_Rb_tree_node_base
0x000a823d	11	_ZNSt8_Rb_treeIN5L6UUE8DevCapIDESt4pairIKS1_bESt10_Select1stIS4_ESt4lessIS1_ESaIS4_EE8_S_valueEPKSt13_Rb_tree_nodeIS4_E
0x000a7918	11	_ZNSt8_Rb_treeIN5L6UUE8DevCapIDESt4pairIKS1_bESt10_Select1stIS4_ESt4lessIS1_ESaIS4_EE8_S_valueEPKSt18_Rb_tree_node_base
0x000abab4	37	_ZNSt8_Rb_treeIN5L6UUE8DevCapIDESt4pairIKS1_bESt10_Select1stIS4_ESt4lessIS1_ESaIS4_EEC1Ev
0x000abab4	37	_ZNSt8_Rb_treeIN5L6UUE8DevCapIDESt4pairIKS1_bESt10_Select1stIS4_ESt4lessIS1_ESaIS4_EEC2Ev
0x000ab158	88	_ZNSt8_Rb_treeIN5L6UUE8DevCapIDESt4pairIKS1_bESt10_Select1stIS4_ESt4lessIS1_ESaIS4_EED1Ev
0x000ab158	88	_ZNSt8_Rb_treeIN5L6UUE8DevCapIDESt4pairIKS1_bESt10_Select1stIS4_ESt4lessIS1_ESaIS4_EED2Ev
0x000a675c	216	_ZNSt8_Rb_treeIN5L6UUE9DevPropIDESt4pairIKS1_NS0_3AnyEESt10_Select1stIS5_ESt4lessIS1_ESaIS5_EE10_M_insert_EPKSt18_Rb_tree_node_baseSE_RKS5_
0x000a8322	53	_ZNSt8_Rb_treeIN5L6UUE9DevPropIDESt4pairIKS1_NS0_3AnyEESt10_Select1stIS5_ESt4lessIS1_ESaIS5_EE11_M_get_nodeEv
0x000a4d54	11	_ZNSt8_Rb_treeIN5L6UUE9DevPropIDESt4pairIKS1_NS0_3AnyEESt10_Select1stIS5_ESt4lessIS1_ESaIS5_EE11_M_leftmostEv
0x000a7ab0	52	_ZNSt8_Rb_treeIN5L6UUE9DevPropIDESt4pairIKS1_NS0_3AnyEESt10_Select1stIS5_ESt4lessIS1_ESaIS5_EE11_M_put_nodeEPSt13_Rb_tree_nodeIS5_E
0x000a4d78	94	_ZNSt8_Rb_treeIN5L6UUE9DevPropIDESt4pairIKS1_NS0_3AnyEESt10_Select1stIS5_ESt4lessIS1_ESaIS5_EE11lower_boundERS3_
0x000a4d6c	11	_ZNSt8_Rb_treeIN5L6UUE9DevPropIDESt4pairIKS1_NS0_3AnyEESt10_Select1stIS5_ESt4lessIS1_ESaIS5_EE12_M_rightmostEv
0x000acea2	49	_ZNSt8_Rb_treeIN5L6UUE9DevPropIDESt4pairIKS1_NS0_3AnyEESt10_Select1stIS5_ESt4lessIS1_ESaIS5_EE13_Rb_tree_implIS9_Lb0EE13_M_initializeEv
0x000ac300	125	_ZNSt8_Rb_treeIN5L6UUE9DevPropIDESt4pairIKS1_NS0_3AnyEESt10_Select1stIS5_ESt4lessIS1_ESaIS5_EE13_Rb_tree_implIS9_Lb0EEC1Ev
0x000ac300	125	_ZNSt8_Rb_treeIN5L6UUE9DevPropIDESt4pairIKS1_NS0_3AnyEESt10_Select1stIS5_ESt4lessIS1_ESaIS5_EE13_Rb_tree_implIS9_Lb0EEC2Ev
0x000ab1d6	37	_ZNSt8_Rb_treeIN5L6UUE9DevPropIDESt4pairIKS1_NS0_3AnyEESt10_Select1stIS5_ESt4lessIS1_ESaIS5_EE13_Rb_tree_implIS9_Lb0EED1Ev
0x000ab1d6	37	_ZNSt8_Rb_treeIN5L6UUE9DevPropIDESt4pairIKS1_NS0_3AnyEESt10_Select1stIS5_ESt4lessIS1_ESaIS5_EE13_Rb_tree_implIS9_Lb0EED2Ev
0x000a7b24	180	_ZNSt8_Rb_treeIN5L6UUE9DevPropIDESt4pairIKS1_NS0_3AnyEESt10_Select1stIS5_ESt4lessIS1_ESaIS5_EE14_M_create_nodeERKS5_
0x000a6694	140	_ZNSt8_Rb_treeIN5L6UUE9DevPropIDESt4pairIKS1_NS0_3AnyEESt10_Select1stIS5_ESt4lessIS1_ESaIS5_EE14_M_lower_boundEPSt13_Rb_tree_nodeIS5_ESE_RS3_
0x000a6610	132	_ZNSt8_Rb_treeIN5L6UUE9DevPropIDESt4pairIKS1_NS0_3AnyEESt10_Select1stIS5_ESt4lessIS1_ESaIS5_EE15_M_destroy_nodeEPSt13_Rb_tree_nodeIS5_E
0x000a6834	490	_ZNSt8_Rb_treeIN5L6UUE9DevPropIDESt4pairIKS1_NS0_3AnyEESt10_Select1stIS5_ESt4lessIS1_ESaIS5_EE16_M_insert_uniqueERKS5_
0x000a4df2	1018	_ZNSt8_Rb_treeIN5L6UUE9DevPropIDESt4pairIKS1_NS0_3AnyEESt10_Select1stIS5_ESt4lessIS1_ESaIS5_EE17_M_insert_unique_ESt23_Rb_tree_const_iteratorIS5_ERKS5_
0x000a3fe6	52	_ZNSt8_Rb_treeIN5L6UUE9DevPropIDESt4pairIKS1_NS0_3AnyEESt10_Select1stIS5_ESt4lessIS1_ESaIS5_EE3endEv
0x000a3fb2	52	_ZNSt8_Rb_treeIN5L6UUE9DevPropIDESt4pairIKS1_NS0_3AnyEESt10_Select1stIS5_ESt4lessIS1_ESaIS5_EE5beginEv
0x000a4022	133	_ZNSt8_Rb_treeIN5L6UUE9DevPropIDESt4pairIKS1_NS0_3AnyEESt10_Select1stIS5_ESt4lessIS1_ESaIS5_EE5clearEv
0x000a4d48	11	_ZNSt8_Rb_treeIN5L6UUE9DevPropIDESt4pairIKS1_NS0_3AnyEESt10_Select1stIS5_ESt4lessIS1_ESaIS5_EE6_M_endEv
0x000a7ae4	52	_ZNSt8_Rb_treeIN5L6UUE9DevPropIDESt4pairIKS1_NS0_3AnyEESt10_Select1stIS5_ESt4lessIS1_ESaIS5_EE6_S_keyEPKSt13_Rb_tree_nodeIS5_E
0x000a6720	52	_ZNSt8_Rb_treeIN5L6UUE9DevPropIDESt4pairIKS1_NS0_3AnyEESt10_Select1stIS5_ESt4lessIS1_ESaIS5_EE6_S_keyEPKSt18_Rb_tree_node_base
0x000a4d60	11	_ZNSt8_Rb_treeIN5L6UUE9DevPropIDESt4pairIKS1_NS0_3AnyEESt10_Select1stIS5_ESt4lessIS1_ESaIS5_EE7_M_rootEv
0x000a6604	11	_ZNSt8_Rb_treeIN5L6UUE9DevPropIDESt4pairIKS1_NS0_3AnyEESt10_Select1stIS5_ESt4lessIS1_ESaIS5_EE7_S_leftEPSt18_Rb_tree_node_base
0x000a4d3c	11	_ZNSt8_Rb_treeIN5L6UUE9DevPropIDESt4pairIKS1_NS0_3AnyEESt10_Select1stIS5_ESt4lessIS1_ESaIS5_EE8_M_beginEv
0x000a4cd4	103	_ZNSt8_Rb_treeIN5L6UUE9DevPropIDESt4pairIKS1_NS0_3AnyEESt10_Select1stIS5_ESt4lessIS1_ESaIS5_EE8_M_eraseEPSt13_Rb_tree_nodeIS5_E
0x000a6a4d	11	_ZNSt8_Rb_treeIN5L6UUE9DevPropIDESt4pairIKS1_NS0_3AnyEESt10_Select1stIS5_ESt4lessIS1_ESaIS5_EE8_S_rightEPKSt18_Rb_tree_node_base
0x000a65f9	11	_ZNSt8_Rb_treeIN5L6UUE9DevPropIDESt4pairIKS1_NS0_3AnyEESt10_Select1stIS5_ESt4lessIS1_ESaIS5_EE8_S_rightEPSt18_Rb_tree_node_base
0x000a8317	11	_ZNSt8_Rb_treeIN5L6UUE9DevPropIDESt4pairIKS1_NS0_3AnyEESt10_Select1stIS5_ESt4lessIS1_ESaIS5_EE8_S_valueEPKSt13_Rb_tree_nodeIS5_E
0x000a7b18	11	_ZNSt8_Rb_treeIN5L6UUE9DevPropIDESt4pairIKS1_NS0_3AnyEESt10_Select1stIS5_ESt4lessIS1_ESaIS5_EE8_S_valueEPKSt18_Rb_tree_node_base
0x000abb00	37	_ZNSt8_Rb_treeIN5L6UUE9DevPropIDESt4pairIKS1_NS0_3AnyEESt10_Select1stIS5_ESt4lessIS1_ESaIS5_EEC1Ev
0x000abb00	37	_ZNSt8_Rb_treeIN5L6UUE9DevPropIDESt4pairIKS1_NS0_3AnyEESt10_Select1stIS5_ESt4lessIS1_ESaIS5_EEC2Ev
0x000ab1fc	88	_ZNSt8_Rb_treeIN5L6UUE9DevPropIDESt4pairIKS1_NS0_3AnyEESt10_Select1stIS5_ESt4lessIS1_ESaIS5_EED1Ev
0x000ab1fc	88	_ZNSt8_Rb_treeIN5L6UUE9DevPropIDESt4pairIKS1_NS0_3AnyEESt10_Select1stIS5_ESt4lessIS1_ESaIS5_EED2Ev
0x000a6c1e	216	_ZNSt8_Rb_treeIN5L6UUE9ImgMetaIDESt4pairIKS1_NS0_3AnyEESt10_Select1stIS5_ESt4lessIS1_ESaIS5_EE10_M_insert_EPKSt18_Rb_tree_node_baseSE_RKS5_
0x000acc1a	37	_ZNSt8_Rb_treeIN5L6UUE9ImgMetaIDESt4pairIKS1_NS0_3AnyEESt10_Select1stIS5_ESt4lessIS1_ESaIS5_EE10_S_maximumEPSt18_Rb_tree_node_base
0x000acbf5	37	_ZNSt8_Rb_treeIN5L6UUE9ImgMetaIDESt4pairIKS1_NS0_3AnyEESt10_Select1stIS5_ESt4lessIS1_ESaIS5_EE10_S_minimumEPSt18_Rb_tree_node_base
0x000a8400	53	_ZNSt8_Rb_treeIN5L6UUE9ImgMetaIDESt4pairIKS1_NS0_3AnyEESt10_Select1stIS5_ESt4lessIS1_ESaIS5_EE11_M_get_nodeEv
0x000a527a	11	_ZNSt8_Rb_treeIN5L6UUE9ImgMetaIDESt4pairIKS1_NS0_3AnyEESt10_Select1stIS5_ESt4lessIS1_ESaIS5_EE11_M_leftmostEv
0x000a7cb0	52	_ZNSt8_Rb_treeIN5L6UUE9ImgMetaIDESt4pairIKS1_NS0_3AnyEESt10_Select1stIS5_ESt4lessIS1_ESaIS5_EE11_M_put_nodeEPSt13_Rb_tree_nodeIS5_E
0x000a529e	94	_ZNSt8_Rb_treeIN5L6UUE9ImgMetaIDESt4pairIKS1_NS0_3AnyEESt10_Select1stIS5_ESt4lessIS1_ESaIS5_EE11lower_boundERS3_
0x000a5292	11	_ZNSt8_Rb_treeIN5L6UUE9ImgMetaIDESt4pairIKS1_NS0_3AnyEESt10_Select1stIS5_ESt4lessIS1_ESaIS5_EE12_M_rightmostEv
0x000ad490	83	_ZNSt8_Rb_treeIN5L6UUE9ImgMetaIDESt4pairIKS1_NS0_3AnyEESt10_Select1stIS5_ESt4lessIS1_ESaIS5_EE13_M_clone_nodeEPKSt13_Rb_tree_nodeIS5_E
0x000acff0	49	_ZNSt8_Rb_treeIN5L6UUE9ImgMetaIDESt4pairIKS1_NS0_3AnyEESt10_Select1stIS5_ESt4lessIS1_ESaIS5_EE13_Rb_tree_implIS9_Lb0EE13_M_initializeEv
0x000ad576	105	_ZNSt8_Rb_treeIN5L6UUE9ImgMetaIDESt4pairIKS1_NS0_3AnyEESt10_Select1stIS5_ESt4lessIS1_ESaIS5_EE13_Rb_tree_implIS9_Lb0EEC1ERKS9_RKSaISt13_Rb_tree_nodeIS5_EE
0x000ac566	125	_ZNSt8_Rb_treeIN5L6UUE9ImgMetaIDESt4pairIKS1_NS0_3AnyEESt10_Select1stIS5_ESt4lessIS1_ESaIS5_EE13_Rb_tree_implIS9_Lb0EEC1Ev
0x000ad576	105	_ZNSt8_Rb_treeIN5L6UUE9ImgMetaIDESt4pairIKS1_NS0_3AnyEESt10_Select1stIS5_ESt4lessIS1_ESaIS5_EE13_Rb_tree_implIS9_Lb0EEC2ERKS9_RKSaISt13_Rb_tree_nodeIS5_EE
0x000ac566	125	_ZNSt8_Rb_treeIN5L6UUE9ImgMetaIDESt4pairIKS1_NS0_3AnyEESt10_Select1stIS5_ESt4lessIS1_ESaIS5_EE13_Rb_tree_implIS9_Lb0EEC2Ev
0x000ab588	37	_ZNSt8_Rb_treeIN5L6UUE9ImgMetaIDESt4pairIKS1_NS0_3AnyEESt10_Select1stIS5_ESt4lessIS1_ESaIS5_EE13_Rb_tree_implIS9_Lb0EED1Ev
0x000ab588	37	_ZNSt8_Rb_treeIN5L6UUE9ImgMetaIDESt4pairIKS1_NS0_3AnyEESt10_Select1stIS5_ESt4lessIS1_ESaIS5_EE13_Rb_tree_implIS9_Lb0EED2Ev
0x000a7d24	180	_ZNSt8_Rb_treeIN5L6UUE9ImgMetaIDESt4pairIKS1_NS0_3AnyEESt10_Select1stIS5_ESt4lessIS1_ESaIS5_EE14_M_create_nodeERKS5_
0x000a6b56	140	_ZNSt8_Rb_treeIN5L6UUE9ImgMetaIDESt4pairIKS1_NS0_3AnyEESt10_Select1stIS5_ESt4lessIS1_ESaIS5_EE14_M_lower_boundEPSt13_Rb_tree_nodeIS5_ESE_RS3_
0x000a6ad2	132	_ZNSt8_Rb_treeIN5L6UUE9ImgMetaIDESt4pairIKS1_NS0_3AnyEESt10_Select1stIS5_ESt4lessIS1_ESaIS5_EE15_M_destroy_nodeEPSt13_Rb_tree_nodeIS5_E
0x000a6cf6	490	_ZNSt8_Rb_treeIN5L6UUE9ImgMetaIDESt4pairIKS1_NS0_3AnyEESt10_Select1stIS5_ESt4lessIS1_ESaIS5_EE16_M_insert_uniqueERKS5_
0x000a5318	1018	_ZNSt8_Rb_treeIN5L6UUE9ImgMetaIDESt4pairIKS1_NS0_3AnyEESt10_Select1stIS5_ESt4lessIS1_ESaIS5_EE17_M_insert_unique_ESt23_Rb_tree_const_iteratorIS5_ERKS5_
0x000a41fe	52	_ZNSt8_Rb_treeIN5L6UUE9ImgMetaIDESt4pairIKS1_NS0_3AnyEESt10_Select1stIS5_ESt4lessIS1_ESaIS5_EE3endEv
0x000a41ca	52	_ZNSt8_Rb_treeIN5L6UUE9ImgMetaIDESt4pairIKS1_NS0_3AnyEESt10_Select1stIS5_ESt4lessIS1_ESaIS5_EE5beginEv
0x000a423a	133	_ZNSt8_Rb_treeIN5L6UUE9ImgMetaIDESt4pairIKS1_NS0_3AnyEESt10_Select1stIS5_ESt4lessIS1_ESaIS5_EE5clearEv
0x000a526e	11	_ZNSt8_Rb_treeIN5L6UUE9ImgMetaIDESt4pairIKS1_NS0_3AnyEESt10_Select1stIS5_ESt4lessIS1_ESaIS5_EE6_M_endEv
0x000a7ce4	52	_ZNSt8_Rb_treeIN5L6UUE9ImgMetaIDESt4pairIKS1_NS0_3AnyEESt10_Select1stIS5_ESt4lessIS1_ESaIS5_EE6_S_keyEPKSt13_Rb_tree_nodeIS5_E
0x000a6be2	52	_ZNSt8_Rb_treeIN5L6UUE9ImgMetaIDESt4pairIKS1_NS0_3AnyEESt10_Select1stIS5_ESt4lessIS1_ESaIS5_EE6_S_keyEPKSt18_Rb_tree_node_base
0x000acaba	303	_ZNSt8_Rb_treeIN5L6UUE9ImgMetaIDESt4pairIKS1_NS0_3AnyEESt10_Select1stIS5_ESt4lessIS1_ESaIS5_EE7_M_copyEPKSt13_Rb_tree_nodeIS5_EPSD_
0x000a5286	11	_ZNSt8_Rb_treeIN5L6UUE9ImgMetaIDESt4pairIKS1_NS0_3AnyEESt10_Select1stIS5_ESt4lessIS1_ESaIS5_EE7_M_rootEv
0x000ad4e3	11	_ZNSt8_Rb_treeIN5L6UUE9ImgMetaIDESt4pairIKS1_NS0_3AnyEESt10_Select1stIS5_ESt4lessIS1_ESaIS5_EE7_S_leftEPKSt18_Rb_tree_node_base
0x000a6ac6	11	_ZNSt8_Rb_treeIN5L6UUE9ImgMetaIDESt4pairIKS1_NS0_3AnyEESt10_Select1stIS5_ESt4lessIS1_ESaIS5_EE7_S_leftEPSt18_Rb_tree_node_base
0x000a5262	11	_ZNSt8_Rb_treeIN5L6UUE9ImgMetaIDESt4pairIKS1_NS0_3AnyEESt10_Select1stIS5_ESt4lessIS1_ESaIS5_EE8_M_beginEv
0x000a51fa	103	_ZNSt8_Rb_treeIN5L6UUE9ImgMetaIDESt4pairIKS1_NS0_3AnyEESt10_Select1stIS5_ESt4lessIS1_ESaIS5_EE8_M_eraseEPSt13_Rb_tree_nodeIS5_E
0x000a6f0f	11	_ZNSt8_Rb_treeIN5L6UUE9ImgMetaIDESt4pairIKS1_NS0_3AnyEESt10_Select1stIS5_ESt4lessIS1_ESaIS5_EE8_S_rightEPKSt18_Rb_tree_node_base
0x000a6abb	11	_ZNSt8_Rb_treeIN5L6UUE9ImgMetaIDESt4pairIKS1_NS0_3AnyEESt10_Select1stIS5_ESt4lessIS1_ESaIS5_EE8_S_rightEPSt18_Rb_tree_node_base
0x000a83f5	11	_ZNSt8_Rb_treeIN5L6UUE9ImgMetaIDESt4pairIKS1_NS0_3AnyEESt10_Select1stIS5_ESt4lessIS1_ESaIS5_EE8_S_valueEPKSt13_Rb_tree_nodeIS5_E
0x000a7d18	11	_ZNSt8_Rb_treeIN5L6UUE9ImgMetaIDESt4pairIKS1_NS0_3AnyEESt10_Select1stIS5_ESt4lessIS1_ESaIS5_EE8_S_valueEPKSt18_Rb_tree_node_base
0x000ad022	257	_ZNSt8_Rb_treeIN5L6UUE9ImgMetaIDESt4pairIKS1_NS0_3AnyEESt10_Select1stIS5_ESt4lessIS1_ESaIS5_EEC1ERKSB_
0x000abdbc	37	_ZNSt8_Rb_treeIN5L6UUE9ImgMetaIDESt4pairIKS1_NS0_3AnyEESt10_Select1stIS5_ESt4lessIS1_ESaIS5_EEC1Ev
0x000ad022	257	_ZNSt8_Rb_treeIN5L6UUE9ImgMetaIDESt4pairIKS1_NS0_3AnyEESt10_Select1stIS5_ESt4lessIS1_ESaIS5_EEC2ERKSB_
0x000abdbc	37	_ZNSt8_Rb_treeIN5L6UUE9ImgMetaIDESt4pairIKS1_NS0_3AnyEESt10_Select1stIS5_ESt4lessIS1_ESaIS5_EEC2Ev
0x000ab5ae	88	_ZNSt8_Rb_treeIN5L6UUE9ImgMetaIDESt4pairIKS1_NS0_3AnyEESt10_Select1stIS5_ESt4lessIS1_ESaIS5_EED1Ev
0x000ab5ae	88	_ZNSt8_Rb_treeIN5L6UUE9ImgMetaIDESt4pairIKS1_NS0_3AnyEESt10_Select1stIS5_ESt4lessIS1_ESaIS5_EED2Ev
0x000ac046	222	_ZNSt8_Rb_treeIN5L6UUE9ImgMetaIDESt4pairIKS1_NS0_3AnyEESt10_Select1stIS5_ESt4lessIS1_ESaIS5_EEaSERKSB_
0x000ad130	216	_ZNSt8_Rb_treeIjSt4pairIKjN5L6UUE9ImageInfoEESt10_Select1stIS4_ESt4lessIjESaIS4_EE10_M_insert_EPKSt18_Rb_tree_node_baseSD_RKS4_
0x000ad712	53	_ZNSt8_Rb_treeIjSt4pairIKjN5L6UUE9ImageInfoEESt10_Select1stIS4_ESt4lessIjESaIS4_EE11_M_get_nodeEv
0x000ac5ea	11	_ZNSt8_Rb_treeIjSt4pairIKjN5L6UUE9ImageInfoEESt10_Select1stIS4_ESt4lessIjESaIS4_EE11_M_leftmostEv
0x000acdf0	52	_ZNSt8_Rb_treeIjSt4pairIKjN5L6UUE9ImageInfoEESt10_Select1stIS4_ESt4lessIjESaIS4_EE11_M_put_nodeEPSt13_Rb_tree_nodeIS4_E
0x000ac60e	94	_ZNSt8_Rb_treeIjSt4pairIKjN5L6UUE9ImageInfoEESt10_Select1stIS4_ESt4lessIjESaIS4_EE11lower_boundERS1_
0x000ac602	11	_ZNSt8_Rb_treeIjSt4pairIKjN5L6UUE9ImageInfoEESt10_Select1stIS4_ESt4lessIjESaIS4_EE12_M_rightmostEv
0x000acd38	49	_ZNSt8_Rb_treeIjSt4pairIKjN5L6UUE9ImageInfoEESt10_Select1stIS4_ESt4lessIjESaIS4_EE13_Rb_tree_implIS8_Lb0EE13_M_initializeEv
0x000ac15e	125	_ZNSt8_Rb_treeIjSt4pairIKjN5L6UUE9ImageInfoEESt10_Select1stIS4_ESt4lessIjESaIS4_EE13_Rb_tree_implIS8_Lb0EEC1Ev
0x000ac15e	125	_ZNSt8_Rb_treeIjSt4pairIKjN5L6UUE9ImageInfoEESt10_Select1stIS4_ESt4lessIjESaIS4_EE13_Rb_tree_implIS8_Lb0EEC2Ev
0x000ab08e	37	_ZNSt8_Rb_treeIjSt4pairIKjN5L6UUE9ImageInfoEESt10_Select1stIS4_ESt4lessIjESaIS4_EE13_Rb_tree_implIS8_Lb0EED1Ev
0x000ab08e	37	_ZNSt8_Rb_treeIjSt4pairIKjN5L6UUE9ImageInfoEESt10_Select1stIS4_ESt4lessIjESaIS4_EE13_Rb_tree_implIS8_Lb0EED2Ev
0x000ad5e0	180	_ZNSt8_Rb_treeIjSt4pairIKjN5L6UUE9ImageInfoEESt10_Select1stIS4_ESt4lessIjESaIS4_EE14_M_create_nodeERKS4_
0x000ac39e	140	_ZNSt8_Rb_treeIjSt4pairIKjN5L6UUE9ImageInfoEESt10_Select1stIS4_ESt4lessIjESaIS4_EE14_M_lower_boundEPSt13_Rb_tree_nodeIS4_ESD_RS1_
0x000ac1f8	132	_ZNSt8_Rb_treeIjSt4pairIKjN5L6UUE9ImageInfoEESt10_Select1stIS4_ESt4lessIjESaIS4_EE15_M_destroy_nodeEPSt13_Rb_tree_nodeIS4_E
0x000ad208	490	_ZNSt8_Rb_treeIjSt4pairIKjN5L6UUE9ImageInfoEESt10_Select1stIS4_ESt4lessIjESaIS4_EE16_M_insert_uniqueERKS4_
0x000ac6b4	1018	_ZNSt8_Rb_treeIjSt4pairIKjN5L6UUE9ImageInfoEESt10_Select1stIS4_ESt4lessIjESaIS4_EE17_M_insert_unique_ESt23_Rb_tree_const_iteratorIS4_ERKS4_
0x000abb80	52	_ZNSt8_Rb_treeIjSt4pairIKjN5L6UUE9ImageInfoEESt10_Select1stIS4_ESt4lessIjESaIS4_EE3endEv
0x000abc52	210	_ZNSt8_Rb_treeIjSt4pairIKjN5L6UUE9ImageInfoEESt10_Select1stIS4_ESt4lessIjESaIS4_EE4findERS1_
0x000abb4c	52	_ZNSt8_Rb_treeIjSt4pairIKjN5L6UUE9ImageInfoEESt10_Select1stIS4_ESt4lessIjESaIS4_EE5beginEv
0x000abe08	133	_ZNSt8_Rb_treeIjSt4pairIKjN5L6UUE9ImageInfoEESt10_Select1stIS4_ESt4lessIjESaIS4_EE5clearEv
0x000ac392	11	_ZNSt8_Rb_treeIjSt4pairIKjN5L6UUE9ImageInfoEESt10_Select1stIS4_ESt4lessIjESaIS4_EE6_M_endEv
0x000aced3	52	_ZNSt8_Rb_treeIjSt4pairIKjN5L6UUE9ImageInfoEESt10_Select1stIS4_ESt4lessIjESaIS4_EE6_S_keyEPKSt13_Rb_tree_nodeIS4_E
0x000ac42a	52	_ZNSt8_Rb_treeIjSt4pairIKjN5L6UUE9ImageInfoEESt10_Select1stIS4_ESt4lessIjESaIS4_EE6_S_keyEPKSt18_Rb_tree_node_base
0x000ac5f6	11	_ZNSt8_Rb_treeIjSt4pairIKjN5L6UUE9ImageInfoEESt10_Select1stIS4_ESt4lessIjESaIS4_EE7_M_rootEv
0x000ac1ec	11	_ZNSt8_Rb_treeIjSt4pairIKjN5L6UUE9ImageInfoEESt10_Select1stIS4_ESt4lessIjESaIS4_EE7_S_leftEPSt18_Rb_tree_node_base
0x000abaa8	11	_ZNSt8_Rb_treeIjSt4pairIKjN5L6UUE9ImageInfoEESt10_Select1stIS4_ESt4lessIjESaIS4_EE8_M_beginEv
0x000aba40	103	_ZNSt8_Rb_treeIjSt4pairIKjN5L6UUE9ImageInfoEESt10_Select1stIS4_ESt4lessIjESaIS4_EE8_M_eraseEPSt13_Rb_tree_nodeIS4_E
0x000ad421	11	_ZNSt8_Rb_treeIjSt4pairIKjN5L6UUE9ImageInfoEESt10_Select1stIS4_ESt4lessIjESaIS4_EE8_S_rightEPKSt18_Rb_tree_node_base
0x000ac1e1	11	_ZNSt8_Rb_treeIjSt4pairIKjN5L6UUE9ImageInfoEESt10_Select1stIS4_ESt4lessIjESaIS4_EE8_S_rightEPSt18_Rb_tree_node_base
0x000ad559	11	_ZNSt8_Rb_treeIjSt4pairIKjN5L6UUE9ImageInfoEESt10_Select1stIS4_ESt4lessIjESaIS4_EE8_S_valueEPKSt13_Rb_tree_nodeIS4_E
0x000acf07	11	_ZNSt8_Rb_treeIjSt4pairIKjN5L6UUE9ImageInfoEESt10_Select1stIS4_ESt4lessIjESaIS4_EE8_S_valueEPKSt18_Rb_tree_node_base
0x000ab9f4	37	_ZNSt8_Rb_treeIjSt4pairIKjN5L6UUE9ImageInfoEESt10_Select1stIS4_ESt4lessIjESaIS4_EEC1Ev
0x000ab9f4	37	_ZNSt8_Rb_treeIjSt4pairIKjN5L6UUE9ImageInfoEESt10_Select1stIS4_ESt4lessIjESaIS4_EEC2Ev
0x000ab0b4	88	_ZNSt8_Rb_treeIjSt4pairIKjN5L6UUE9ImageInfoEESt10_Select1stIS4_ESt4lessIjESaIS4_EED1Ev
0x000ab0b4	88	_ZNSt8_Rb_treeIjSt4pairIKjN5L6UUE9ImageInfoEESt10_Select1stIS4_ESt4lessIjESaIS4_EED2Ev
0x0009bb30	216	_ZNSt8_Rb_treeIjSt4pairIKjjESt10_Select1stIS2_ESt4lessIjESaIS2_EE10_M_insert_EPKSt18_Rb_tree_node_baseSB_RKS2_
0x0009d6a0	37	_ZNSt8_Rb_treeIjSt4pairIKjjESt10_Select1stIS2_ESt4lessIjESaIS2_EE10_S_maximumEPSt18_Rb_tree_node_base
0x0009d67b	37	_ZNSt8_Rb_treeIjSt4pairIKjjESt10_Select1stIS2_ESt4lessIjESaIS2_EE10_S_minimumEPSt18_Rb_tree_node_base
0x0009c34e	53	_ZNSt8_Rb_treeIjSt4pairIKjjESt10_Select1stIS2_ESt4lessIjESaIS2_EE11_M_get_nodeEv
0x0009ac12	11	_ZNSt8_Rb_treeIjSt4pairIKjjESt10_Select1stIS2_ESt4lessIjESaIS2_EE11_M_leftmostEv
0x0009bf1c	52	_ZNSt8_Rb_treeIjSt4pairIKjjESt10_Select1stIS2_ESt4lessIjESaIS2_EE11_M_put_nodeEPSt13_Rb_tree_nodeIS2_E
0x0009b194	94	_ZNSt8_Rb_treeIjSt4pairIKjjESt10_Select1stIS2_ESt4lessIjESaIS2_EE11lower_boundERS1_
0x0009ac2a	11	_ZNSt8_Rb_treeIjSt4pairIKjjESt10_Select1stIS2_ESt4lessIjESaIS2_EE12_M_rightmostEv
0x0009d6f2	83	_ZNSt8_Rb_treeIjSt4pairIKjjESt10_Select1stIS2_ESt4lessIjESaIS2_EE13_M_clone_nodeEPKSt13_Rb_tree_nodeIS2_E
0x0009bf9e	49	_ZNSt8_Rb_treeIjSt4pairIKjjESt10_Select1stIS2_ESt4lessIjESaIS2_EE13_Rb_tree_implIS6_Lb0EE13_M_initializeEv
0x0009d4b0	132	_ZNSt8_Rb_treeIjSt4pairIKjjESt10_Select1stIS2_ESt4lessIjESaIS2_EE13_Rb_tree_implIS6_Lb0EEC1ERKS6_RKSaISt13_Rb_tree_nodeIS2_EE
0x0009b706	125	_ZNSt8_Rb_treeIjSt4pairIKjjESt10_Select1stIS2_ESt4lessIjESaIS2_EE13_Rb_tree_implIS6_Lb0EEC1Ev
0x0009d4b0	132	_ZNSt8_Rb_treeIjSt4pairIKjjESt10_Select1stIS2_ESt4lessIjESaIS2_EE13_Rb_tree_implIS6_Lb0EEC2ERKS6_RKSaISt13_Rb_tree_nodeIS2_EE
0x0009b706	125	_ZNSt8_Rb_treeIjSt4pairIKjjESt10_Select1stIS2_ESt4lessIjESaIS2_EE13_Rb_tree_implIS6_Lb0EEC2Ev
0x0009a4d6	37	_ZNSt8_Rb_treeIjSt4pairIKjjESt10_Select1stIS2_ESt4lessIjESaIS2_EE13_Rb_tree_implIS6_Lb0EED1Ev
0x0009a4d6	37	_ZNSt8_Rb_treeIjSt4pairIKjjESt10_Select1stIS2_ESt4lessIjESaIS2_EE13_Rb_tree_implIS6_Lb0EED2Ev
0x0009c14c	180	_ZNSt8_Rb_treeIjSt4pairIKjjESt10_Select1stIS2_ESt4lessIjESaIS2_EE14_M_create_nodeERKS2_
0x0009ba68	140	_ZNSt8_Rb_treeIjSt4pairIKjjESt10_Select1stIS2_ESt4lessIjESaIS2_EE14_M_lower_boundEPSt13_Rb_tree_nodeIS2_ESB_RS1_
0x0009b61e	132	_ZNSt8_Rb_treeIjSt4pairIKjjESt10_Select1stIS2_ESt4lessIjESaIS2_EE15_M_destroy_nodeEPSt13_Rb_tree_nodeIS2_E
0x0009bc08	490	_ZNSt8_Rb_treeIjSt4pairIKjjESt10_Select1stIS2_ESt4lessIjESaIS2_EE16_M_insert_uniqueERKS2_
0x0009b20e	1018	_ZNSt8_Rb_treeIjSt4pairIKjjESt10_Select1stIS2_ESt4lessIjESaIS2_EE17_M_insert_unique_ESt23_Rb_tree_const_iteratorIS2_ERKS2_
0x0009aa48	52	_ZNSt8_Rb_treeIjSt4pairIKjjESt10_Select1stIS2_ESt4lessIjESaIS2_EE3endEv
0x0009aa14	52	_ZNSt8_Rb_treeIjSt4pairIKjjESt10_Select1stIS2_ESt4lessIjESaIS2_EE5beginEv
0x0009a2fe	133	_ZNSt8_Rb_treeIjSt4pairIKjjESt10_Select1stIS2_ESt4lessIjESaIS2_EE5clearEv
0x0009ac06	11	_ZNSt8_Rb_treeIjSt4pairIKjjESt10_Select1stIS2_ESt4lessIjESaIS2_EE6_M_endEv
0x0009c10c	52	_ZNSt8_Rb_treeIjSt4pairIKjjESt10_Select1stIS2_ESt4lessIjESaIS2_EE6_S_keyEPKSt13_Rb_tree_nodeIS2_E
0x0009baf4	52	_ZNSt8_Rb_treeIjSt4pairIKjjESt10_Select1stIS2_ESt4lessIjESaIS2_EE6_S_keyEPKSt18_Rb_tree_node_base
0x0009d540	303	_ZNSt8_Rb_treeIjSt4pairIKjjESt10_Select1stIS2_ESt4lessIjESaIS2_EE7_M_copyEPKSt13_Rb_tree_nodeIS2_EPSA_
0x0009ac1e	11	_ZNSt8_Rb_treeIjSt4pairIKjjESt10_Select1stIS2_ESt4lessIjESaIS2_EE7_M_rootEv
0x0009d745	11	_ZNSt8_Rb_treeIjSt4pairIKjjESt10_Select1stIS2_ESt4lessIjESaIS2_EE7_S_leftEPKSt18_Rb_tree_node_base
0x0009b613	11	_ZNSt8_Rb_treeIjSt4pairIKjjESt10_Select1stIS2_ESt4lessIjESaIS2_EE7_S_leftEPSt18_Rb_tree_node_base
0x0009abfa	11	_ZNSt8_Rb_treeIjSt4pairIKjjESt10_Select1stIS2_ESt4lessIjESaIS2_EE8_M_beginEv
0x0009ab92	103	_ZNSt8_Rb_treeIjSt4pairIKjjESt10_Select1stIS2_ESt4lessIjESaIS2_EE8_M_eraseEPSt13_Rb_tree_nodeIS2_E
0x0009be21	11	_ZNSt8_Rb_treeIjSt4pairIKjjESt10_Select1stIS2_ESt4lessIjESaIS2_EE8_S_rightEPKSt18_Rb_tree_node_base
0x0009b608	11	_ZNSt8_Rb_treeIjSt4pairIKjjESt10_Select1stIS2_ESt4lessIjESaIS2_EE8_S_rightEPSt18_Rb_tree_node_base
0x0009c342	11	_ZNSt8_Rb_treeIjSt4pairIKjjESt10_Select1stIS2_ESt4lessIjESaIS2_EE8_S_valueEPKSt13_Rb_tree_nodeIS2_E
0x0009c140	11	_ZNSt8_Rb_treeIjSt4pairIKjjESt10_Select1stIS2_ESt4lessIjESaIS2_EE8_S_valueEPKSt18_Rb_tree_node_base
0x0009d3ae	257	_ZNSt8_Rb_treeIjSt4pairIKjjESt10_Select1stIS2_ESt4lessIjESaIS2_EEC1ERKS8_
0x0009adcc	37	_ZNSt8_Rb_treeIjSt4pairIKjjESt10_Select1stIS2_ESt4lessIjESaIS2_EEC1Ev
0x0009d3ae	257	_ZNSt8_Rb_treeIjSt4pairIKjjESt10_Select1stIS2_ESt4lessIjESaIS2_EEC2ERKS8_
0x0009adcc	37	_ZNSt8_Rb_treeIjSt4pairIKjjESt10_Select1stIS2_ESt4lessIjESaIS2_EEC2Ev
0x0009a4fc	88	_ZNSt8_Rb_treeIjSt4pairIKjjESt10_Select1stIS2_ESt4lessIjESaIS2_EED1Ev
0x0009a4fc	88	_ZNSt8_Rb_treeIjSt4pairIKjjESt10_Select1stIS2_ESt4lessIjESaIS2_EED2Ev
0x0011aa45	18	_ZNSt8__lc_raiISt26bidirectional_iterator_tagS0_E10__newlast1ISt23_Rb_tree_const_iteratorISt4pairIKN4Json5Value8CZStringES6_EESA_EET_SB_SB_T0_SC_
0x0011aa57	44	_ZNSt8__lc_raiISt26bidirectional_iterator_tagS0_E6__cnd2ISt23_Rb_tree_const_iteratorISt4pairIKN4Json5Value8CZStringES6_EEEEbT_SB_
0x0016a720	56	_ZNSt8bad_castD0Ev
0x0016a6f0	45	_ZNSt8bad_castD1Ev
0x0016a6f0	45	_ZNSt8bad_castD2Ev
0x001063fe	59	_ZNSt8ios_base4setfESt13_Ios_Fmtflags
0x0010643a	103	_ZNSt8ios_base4setfESt13_Ios_FmtflagsS0_
0x0016a690	56	_ZNSt9bad_allocD0Ev
0x0016a660	45	_ZNSt9bad_allocD1Ev
0x0016a660	45	_ZNSt9bad_allocD2Ev
0x00098e8c	30	_ZNSt9exceptionC1Ev
0x00098e8c	30	_ZNSt9exceptionC2Ev
0x0016b530	56	_ZNSt9exceptionD0Ev
0x0016b3a0	27	_ZNSt9exceptionD1Ev
0x0016b3a0	27	_ZNSt9exceptionD2Ev
0x0011ad65	98	_ZSt10_ConstructIN4Json12PathArgumentES1_EvPT_RKT0_
0x00111af6	98	_ZSt10_ConstructIN4Json6Reader9ErrorInfoES2_EvPT_RKT0_
0x0010a9f1	98	_ZSt10_ConstructISsSsEvPT_RKT0_
0x001111e3	17	_ZSt10__distanceIPKcENSt15iterator_traitsIT_E15difference_typeES3_S3_St26random_access_iterator_tag
0x0009d0f4	75	_ZSt10__distanceISt20_List_const_iteratorIN5L6UUE12UpdateEngine9ImageInfoEEENSt15iterator_traitsIT_E15difference_typeES6_S6_St18input_iterator_tag
0x0009b930	75	_ZSt10__distanceISt20_List_const_iteratorIPN5L6UUE12ImageArchive4NodeEEENSt15iterator_traitsIT_E15difference_typeES7_S7_St18input_iterator_tag
0x0009b6ba	75	_ZSt10__distanceISt20_List_const_iteratorIPN5L6UUE12ImageArchive5ImageEEENSt15iterator_traitsIT_E15difference_typeES7_S7_St18input_iterator_tag
0x0016c2a0	35	_ZSt10unexpectedv
0x0011a8b9	8	_ZSt11__addressofIN4Json12PathArgumentEEPT_RS2_
0x00087da7	8	_ZSt11__addressofIN4Json6Reader9ErrorInfoEEPT_RS3_
0x0009cfc5	8	_ZSt11__addressofIN5L6UUE12UpdateEngine9ImageInfoEEPT_RS3_
0x0009b015	8	_ZSt11__addressofIPN5L6UUE12ImageArchive4NodeEEPT_RS4_
0x0009af09	8	_ZSt11__addressofIPN5L6UUE12ImageArchive5ImageEEPT_RS4_
0x00087c4f	8	_ZSt11__addressofISsEPT_RS0_
0x00117630	8	_ZSt11__addressofISt4pairIKN4Json5Value8CZStringES2_EEPT_RS6_
0x0009fb20	8	_ZSt11__addressofISt4pairIKN5L6UUE12ConstraintIDENS1_3AnyEEEPT_RS6_
0x0009f590	8	_ZSt11__addressofISt4pairIKN5L6UUE13UpdateCommandEiEEPT_RS5_
0x000a444a	8	_ZSt11__addressofISt4pairIKN5L6UUE13UpdateParamIDENS1_3AnyEEEPT_RS6_
0x000a3e06	8	_ZSt11__addressofISt4pairIKN5L6UUE8DevCapIDEbEEPT_RS5_
0x000a401a	8	_ZSt11__addressofISt4pairIKN5L6UUE9DevPropIDENS1_3AnyEEEPT_RS6_
0x000a4232	8	_ZSt11__addressofISt4pairIKN5L6UUE9ImgMetaIDENS1_3AnyEEEPT_RS6_
0x000abbb4	8	_ZSt11__addressofISt4pairIKjN5L6UUE9ImageInfoEEEPT_RS5_
0x0009aa7c	8	_ZSt11__addressofISt4pairIKjjEEPT_RS3_
0x00119da3	55	_ZSt11__equal_auxISt23_Rb_tree_const_iteratorISt4pairIKN4Json5Value8CZStringES3_EES7_EbT_S8_T0_
0x0011a373	37	_ZSt12__miter_baseIPN4Json12PathArgumentEENSt11_Miter_baseIT_E13iterator_typeES4_
0x001122fc	37	_ZSt12__miter_baseIPN4Json6Reader9ErrorInfoEENSt11_Miter_baseIT_E13iterator_typeES5_
0x0011a23c	37	_ZSt12__miter_baseIPPKN4Json12PathArgumentEENSt11_Miter_baseIT_E13iterator_typeES6_
0x001111f4	37	_ZSt12__miter_baseIPPN4Json6Reader9ErrorInfoEENSt11_Miter_baseIT_E13iterator_typeES6_
0x001118fb	37	_ZSt12__miter_baseIPPPN4Json5ValueEENSt11_Miter_baseIT_E13iterator_typeES6_
0x0010a95e	37	_ZSt12__miter_baseIPSsENSt11_Miter_baseIT_E13iterator_typeES2_
0x001117cc	71	_ZSt12__miter_baseISt15_Deque_iteratorIPN4Json5ValueERKS3_PS4_EENSt11_Miter_baseIT_E13iterator_typeES9_
0x0011a99d	37	_ZSt12__niter_baseIPN4Json12PathArgumentEENSt11_Niter_baseIT_E13iterator_typeES4_
0x00111df8	37	_ZSt12__niter_baseIPN4Json6Reader9ErrorInfoEENSt11_Niter_baseIT_E13iterator_typeES5_
0x0011a8f3	37	_ZSt12__niter_baseIPPKN4Json12PathArgumentEENSt11_Niter_baseIT_E13iterator_typeES6_
0x001119ce	37	_ZSt12__niter_baseIPPN4Json6Reader9ErrorInfoEENSt11_Niter_baseIT_E13iterator_typeES6_
0x0011205f	37	_ZSt12__niter_baseIPPPN4Json5ValueEENSt11_Niter_baseIT_E13iterator_typeES6_
0x0010aae7	37	_ZSt12__niter_baseIPSsENSt11_Niter_baseIT_E13iterator_typeES2_
0x00111f4c	71	_ZSt12__niter_baseISt15_Deque_iteratorIPN4Json5ValueERKS3_PS4_EENSt11_Niter_baseIT_E13iterator_typeES9_
0x00111f93	68	_ZSt12__niter_baseISt15_Deque_iteratorIPN4Json5ValueERS3_PS3_EENSt11_Niter_baseIT_E13iterator_typeES8_
0x00119d33	50	_ZSt12__niter_baseISt23_Rb_tree_const_iteratorISt4pairIKN4Json5Value8CZStringES3_EEENSt11_Niter_baseIT_E13iterator_typeES9_
0x00112547	55	_ZSt13__copy_move_aILb0EPN4Json6Reader9ErrorInfoES3_ET1_T0_S5_S4_
0x0011ae1a	55	_ZSt13__copy_move_aILb0EPPKN4Json12PathArgumentES4_ET1_T0_S6_S5_
0x001119f3	55	_ZSt13__copy_move_aILb0EPPN4Json6Reader9ErrorInfoES4_ET1_T0_S6_S5_
0x00112084	55	_ZSt13__copy_move_aILb0EPPPN4Json5ValueES4_ET1_T0_S6_S5_
0x00111fd7	128	_ZSt13__copy_move_aILb0ESt15_Deque_iteratorIPN4Json5ValueERKS3_PS4_ES0_IS3_RS3_PS3_EET1_T0_SC_SB_
0x00111656	374	_ZSt13copy_backwardIN4Json6Reader9ErrorInfoEESt15_Deque_iteratorIT_RS4_PS4_ES3_IS4_RKS4_PS8_ESB_S7_
0x00110e90	160	_ZSt13copy_backwardIN4Json6Reader9ErrorInfoEESt15_Deque_iteratorIT_RS4_PS4_ES7_S7_S7_
0x0011995a	71	_ZSt13copy_backwardIPN4Json12PathArgumentES2_ET0_T_S4_S3_
0x00111eb3	71	_ZSt13copy_backwardIPN4Json6Reader9ErrorInfoES3_ET0_T_S5_S4_
0x00119748	71	_ZSt13copy_backwardIPPKN4Json12PathArgumentES4_ET0_T_S6_S5_
0x00110848	71	_ZSt13copy_backwardIPPN4Json6Reader9ErrorInfoES4_ET0_T_S6_S5_
0x00111187	71	_ZSt13copy_backwardIPPPN4Json5ValueES4_ET0_T_S6_S5_
0x0010a729	71	_ZSt13copy_backwardIPSsS0_ET0_T_S2_S1_
0x0016c2d0	31	_ZSt13set_terminatePFvvE
0x001223f0	383	_ZSt14__convert_to_vIdEvPKcRT_RSt12_Ios_IostateRKPi
0x00122570	351	_ZSt14__convert_to_vIeEvPKcRT_RSt12_Ios_IostateRKPi
0x00122280	367	_ZSt14__convert_to_vIfEvPKcRT_RSt12_Ios_IostateRKPi
0x00112321	83	_ZSt14__copy_move_a2ILb0EPN4Json6Reader9ErrorInfoES3_ET1_T0_S5_S4_
0x0011adc7	83	_ZSt14__copy_move_a2ILb0EPPKN4Json12PathArgumentES4_ET1_T0_S6_S5_
0x00111219	83	_ZSt14__copy_move_a2ILb0EPPN4Json6Reader9ErrorInfoES4_ET1_T0_S6_S5_
0x00111920	83	_ZSt14__copy_move_a2ILb0EPPPN4Json5ValueES4_ET1_T0_S6_S5_
0x00111813	232	_ZSt14__copy_move_a2ILb0ESt15_Deque_iteratorIPN4Json5ValueERKS3_PS4_ES0_IS3_RS3_PS3_EET1_T0_SC_SB_
0x0016c2f0	31	_ZSt14set_unexpectedPFvvE
0x00170ca0	28	_ZSt15set_new_handlerPFvvE
0x00086154	34	_ZSt16__deque_buf_sizej
0x0016b370	35	_ZSt18uncaught_exceptionv
0x00119571	51	_ZSt18uninitialized_copyIN9__gnu_cxx17__normal_iteratorIPKSsSt6vectorISsSaISsEEEEPSsET0_T_SA_S9_
0x0011aa0c	51	_ZSt18uninitialized_copyIPN4Json12PathArgumentES2_ET0_T_S4_S3_
0x0011a962	51	_ZSt18uninitialized_copyIPPKN4Json12PathArgumentES4_ET0_T_S6_S5_
0x0010a92b	51	_ZSt18uninitialized_copyIPSsS0_ET0_T_S2_S1_
0x00111ba8	118	_ZSt18uninitialized_copyISt15_Deque_iteratorIN4Json6Reader9ErrorInfoERS3_PS3_ES6_ET0_T_S8_S7_
0x0010f5c3	124	_ZSt18uninitialized_copyISt15_Deque_iteratorIPN4Json5ValueERKS3_PS4_ES0_IS3_RS3_PS3_EET0_T_SC_SB_
0x00110a04	87	_ZSt18uninitialized_fillISt15_Deque_iteratorIN4Json6Reader9ErrorInfoERS3_PS3_ES3_EvT_S7_RKT0_
0x001111d8	11	_ZSt19__iterator_categoryIPKcENSt15iterator_traitsIT_E17iterator_categoryERKS3_
0x0009d0e9	11	_ZSt19__iterator_categoryISt20_List_const_iteratorIN5L6UUE12UpdateEngine9ImageInfoEEENSt15iterator_traitsIT_E17iterator_categoryERKS6_
0x0009b925	11	_ZSt19__iterator_categoryISt20_List_const_iteratorIPN5L6UUE12ImageArchive4NodeEEENSt15iterator_traitsIT_E17iterator_categoryERKS7_
0x0009b6af	11	_ZSt19__iterator_categoryISt20_List_const_iteratorIPN5L6UUE12ImageArchive5ImageEEENSt15iterator_traitsIT_E17iterator_categoryERKS7_
0x0011a9c2	55	_ZSt22__copy_move_backward_aILb0EPN4Json12PathArgumentES2_ET1_T0_S4_S3_
0x0011257e	55	_ZSt22__copy_move_backward_aILb0EPN4Json6Reader9ErrorInfoES3_ET1_T0_S5_S4_
0x0011a918	55	_ZSt22__copy_move_backward_aILb0EPPKN4Json12PathArgumentES4_ET1_T0_S6_S5_
0x00111a2a	55	_ZSt22__copy_move_backward_aILb0EPPN4Json6Reader9ErrorInfoES4_ET1_T0_S6_S5_
0x001120bb	55	_ZSt22__copy_move_backward_aILb0EPPPN4Json5ValueES4_ET1_T0_S6_S5_
0x0010ab0c	55	_ZSt22__copy_move_backward_aILb0EPSsS0_ET1_T0_S2_S1_
0x00118056	51	_ZSt22__uninitialized_copy_aIN9__gnu_cxx17__normal_iteratorIPKSsSt6vectorISsSaISsEEEEPSsSsET0_T_SA_S9_RSaIT1_E
0x0011a484	51	_ZSt22__uninitialized_copy_aIPN4Json12PathArgumentES2_S1_ET0_T_S4_S3_RSaIT1_E
0x0011a340	51	_ZSt22__uninitialized_copy_aIPPKN4Json12PathArgumentES4_S3_ET0_T_S6_S5_RSaIT1_E
0x0010a6f6	51	_ZSt22__uninitialized_copy_aIPSsS0_SsET0_T_S2_S1_RSaIT1_E
0x00111435	118	_ZSt22__uninitialized_copy_aISt15_Deque_iteratorIN4Json6Reader9ErrorInfoERS3_PS3_ES6_S3_ET0_T_S8_S7_RSaIT1_E
0x0010ea80	124	_ZSt22__uninitialized_copy_aISt15_Deque_iteratorIPN4Json5ValueERKS3_PS4_ES0_IS3_RS3_PS3_ES3_ET0_T_SC_SB_RSaIT1_E
0x0010fc47	87	_ZSt22__uninitialized_fill_aISt15_Deque_iteratorIN4Json6Reader9ErrorInfoERS3_PS3_ES3_S3_EvT_S7_RKT0_RSaIT1_E
0x00119b19	58	_ZSt22__uninitialized_move_aIPN4Json12PathArgumentES2_SaIS1_EET0_T_S5_S4_RT1_
0x00119901	58	_ZSt22__uninitialized_move_aIPPKN4Json12PathArgumentES4_SaIS3_EET0_T_S7_S6_RT1_
0x0010a864	58	_ZSt22__uninitialized_move_aIPSsS0_SaISsEET0_T_S3_S2_RT1_
0x00110b70	125	_ZSt22__uninitialized_move_aISt15_Deque_iteratorIN4Json6Reader9ErrorInfoERS3_PS3_ES6_SaIS3_EET0_T_S9_S8_RT1_
0x0011a398	83	_ZSt23__copy_move_backward_a2ILb0EPN4Json12PathArgumentES2_ET1_T0_S4_S3_
0x0011237c	83	_ZSt23__copy_move_backward_a2ILb0EPN4Json6Reader9ErrorInfoES3_ET1_T0_S5_S4_
0x0011a261	83	_ZSt23__copy_move_backward_a2ILb0EPPKN4Json12PathArgumentES4_ET1_T0_S6_S5_
0x0011126c	83	_ZSt23__copy_move_backward_a2ILb0EPPN4Json6Reader9ErrorInfoES4_ET1_T0_S6_S5_
0x00111973	83	_ZSt23__copy_move_backward_a2ILb0EPPPN4Json5ValueES4_ET1_T0_S6_S5_
0x0010a983	83	_ZSt23__copy_move_backward_a2ILb0EPSsS0_ET1_T0_S2_S1_
0x00118dd0	144	_ZSt23lexicographical_compareISt23_Rb_tree_const_iteratorISt4pairIKN4Json5Value8CZStringES3_EES7_EbT_S8_T0_S9_
0x00110f30	291	_ZSt25__uninitialized_fill_moveISt15_Deque_iteratorIN4Json6Reader9ErrorInfoERS3_PS3_ES3_S6_SaIS3_EET_S8_S8_RKT0_T1_SC_RT2_
0x00110d67	297	_ZSt25__uninitialized_move_fillISt15_Deque_iteratorIN4Json6Reader9ErrorInfoERS3_PS3_ES6_S3_SaIS3_EEvT_S8_T0_S9_RKT1_RT2_
0x00119d65	62	_ZSt29__lexicographical_compare_auxISt23_Rb_tree_const_iteratorISt4pairIKN4Json5Value8CZStringES3_EES7_EbT_S8_T0_S9_
0x001064d1	56	_ZSt3hexRSt8ios_base
0x0010a9d6	27	_ZSt3maxIjERKT_S2_S2_
0x00111c93	27	_ZSt3minIiERKT_S2_S2_
0x000ab606	27	_ZSt3minIjERKT_S2_S2_
0x001114ab	276	_ZSt4copyIN4Json6Reader9ErrorInfoEESt15_Deque_iteratorIT_RS4_PS4_ES3_IS4_RKS4_PS8_ESB_S7_
0x00110bed	160	_ZSt4copyIN4Json6Reader9ErrorInfoEESt15_Deque_iteratorIT_RS4_PS4_ES7_S7_S7_
0x00111cae	71	_ZSt4copyIPN4Json6Reader9ErrorInfoES3_ET0_T_S5_S4_
0x0011ad1e	71	_ZSt4copyIPPKN4Json12PathArgumentES4_ET0_T_S6_S5_
0x00110801	71	_ZSt4copyIPPN4Json6Reader9ErrorInfoES4_ET0_T_S6_S5_
0x00111140	71	_ZSt4copyIPPPN4Json5ValueES4_ET0_T_S6_S5_
0x00111063	210	_ZSt4copyISt15_Deque_iteratorIPN4Json5ValueERKS3_PS4_ES0_IS3_RS3_PS3_EET0_T_SC_SB_
0x00110c8d	218	_ZSt4fillIN4Json6Reader9ErrorInfoEEvRKSt15_Deque_iteratorIT_RS4_PS4_ES9_RKS4_
0x001115bf	71	_ZSt4fillIPN4Json6Reader9ErrorInfoES2_EvT_S4_RKT0_
0x0010661a	18	_ZSt4setwi
0x00116e40	53	_ZSt4swapIN4Json5Value11ValueHolderEEvRT_S4_
0x00116d29	35	_ZSt4swapIPKcEvRT_S3_
0x00116d4c	35	_ZSt4swapIiEvRT_S1_
0x00118e60	115	_ZSt5equalISt23_Rb_tree_const_iteratorISt4pairIKN4Json5Value8CZStringES3_EES7_EbT_S8_T0_
0x0011a8c1	37	_ZSt8_DestroyIN4Json12PathArgumentEEvPT_
0x00087dd8	37	_ZSt8_DestroyIN4Json6Reader9ErrorInfoEEvPT_
0x00119645	44	_ZSt8_DestroyIPN4Json12PathArgumentEEvT_S3_
0x00118186	44	_ZSt8_DestroyIPN4Json12PathArgumentES1_EvT_S3_RSaIT0_E
0x00087d2f	44	_ZSt8_DestroyIPN4Json6Reader9ErrorInfoEEvT_S4_
0x00087c23	44	_ZSt8_DestroyIPN4Json6Reader9ErrorInfoES2_EvT_S4_RSaIT0_E
0x00119713	44	_ZSt8_DestroyIPPKN4Json12PathArgumentEEvT_S5_
0x00118274	44	_ZSt8_DestroyIPPKN4Json12PathArgumentES3_EvT_S5_RSaIT0_E
0x00087719	44	_ZSt8_DestroyIPSsEvT_S1_
0x00087370	44	_ZSt8_DestroyIPSsSsEvT_S1_RSaIT0_E
0x00087c57	37	_ZSt8_DestroyISsEvPT_
0x00111b58	80	_ZSt8_DestroyISt15_Deque_iteratorIN4Json6Reader9ErrorInfoERS3_PS3_EEvT_S7_
0x00111606	80	_ZSt8_DestroyISt15_Deque_iteratorIN4Json6Reader9ErrorInfoERS3_PS3_ES3_EvT_S7_RSaIT0_E
0x00111e1d	63	_ZSt8__fill_aIPN4Json6Reader9ErrorInfoES2_EN9__gnu_cxx11__enable_ifIXntsrSt11__is_scalarIT0_E7__valueEvE6__typeET_SB_RKS7_
0x001107b8	73	_ZSt8distanceIPKcENSt15iterator_traitsIT_E15difference_typeES3_S3_
0x0009cebb	73	_ZSt8distanceISt20_List_const_iteratorIN5L6UUE12UpdateEngine9ImageInfoEEENSt15iterator_traitsIT_E15difference_typeES6_S6_
0x0009b0cb	73	_ZSt8distanceISt20_List_const_iteratorIPN5L6UUE12ImageArchive4NodeEEENSt15iterator_traitsIT_E15difference_typeES7_S7_
0x0009ad75	73	_ZSt8distanceISt20_List_const_iteratorIPN5L6UUE12ImageArchive5ImageEEENSt15iterator_traitsIT_E15difference_typeES7_S7_
0x0016c250	35	_ZSt9terminatev
0x001064a1	48	_ZSt9uppercaseRSt8ios_base
0x001063c6	56	_ZStaNRSt13_Ios_FmtflagsS_
0x0010636a	13	_ZStanSt13_Ios_FmtflagsS_
0x00106384	10	_ZStcoSt13_Ios_Fmtflags
0x0011aaf4	88	_ZSteqIKN4Json5Value8CZStringES1_EbRKSt4pairIT_T0_ES9_
0x00116ec7	44	_ZSteqIN4Json5Value8CZStringES1_St4lessIS2_ESaISt4pairIKS2_S1_EEEbRKSt3mapIT_T0_T1_T2_ESG_
0x00117895	162	_ZSteqIN4Json5Value8CZStringESt4pairIKS2_S1_ESt10_Select1stIS5_ESt4lessIS2_ESaIS5_EEbRKSt8_Rb_treeIT_T0_T1_T2_T3_ESJ_
0x0010e74b	20	_ZSteqIN4Json6Reader9ErrorInfoERKS2_PS3_EbRKSt15_Deque_iteratorIT_T0_T1_ESC_
0x001121ae	20	_ZSteqIN4Json6Reader9ErrorInfoERS2_PS2_EbRKSt15_Deque_iteratorIT_T0_T1_ESB_
0x0010ece4	20	_ZSteqIPN4Json5ValueERS2_PS2_EbRKSt15_Deque_iteratorIT_T0_T1_ESB_
0x001107a2	10	_ZSteqIcEbRKSaIT_ES3_
0x0011aa83	113	_ZStltIKN4Json5Value8CZStringES1_EbRKSt4pairIT_T0_ES9_
0x00116e9b	44	_ZStltIN4Json5Value8CZStringES1_St4lessIS2_ESaISt4pairIKS2_S1_EEEbRKSt3mapIT_T0_T1_T2_ESG_
0x00117805	144	_ZStltIN4Json5Value8CZStringESt4pairIKS2_S1_ESt10_Select1stIS5_ESt4lessIS2_ESaIS5_EEbRKSt8_Rb_treeIT_T0_T1_T2_T3_ESJ_
0x00111c1e	117	_ZStmiIN4Json6Reader9ErrorInfoERKS2_PS3_ENSt15_Deque_iteratorIT_T0_T1_E15difference_typeERKSA_SD_
0x0010e5c0	117	_ZStmiIN4Json6Reader9ErrorInfoERS2_PS2_ENSt15_Deque_iteratorIT_T0_T1_E15difference_typeERKS9_SC_
0x001125b5	105	_ZStmiIPN4Json5ValueERKS2_PS3_ENSt15_Deque_iteratorIT_T0_T1_E15difference_typeERKSA_SD_
0x0010f4cb	105	_ZStmiIPN4Json5ValueERS2_PS2_ENSt15_Deque_iteratorIT_T0_T1_E15difference_typeERKS9_SC_
0x0010e070	47	_ZStneIN4Json6Reader9ErrorInfoERKS2_PS3_EbRKSt15_Deque_iteratorIT_T0_T1_ESC_
0x00111a61	47	_ZStneIN4Json6Reader9ErrorInfoERS2_PS2_EbRKSt15_Deque_iteratorIT_T0_T1_ESB_
0x0010638e	56	_ZStoRRSt13_Ios_FmtflagsS_
0x00106377	13	_ZStorSt13_Ios_FmtflagsS_
0x00109d4b	93	_ZStplIcSt11char_traitsIcESaIcEESbIT_T0_T1_ERKS6_PKS3_
0x00096112	10	_ZThn120_N18L6AndroidNdkDevice22handlePortNotificationEP11IDevicePortRK8L6StringRK9L6Variant
0x00094ada	10	_ZThn120_N18L6AndroidNdkDeviceD0Ev
0x000949fa	10	_ZThn120_N18L6AndroidNdkDeviceD1Ev
0x00078ad4	10	_ZThn12_N20AmplifiRemoteManager10tunerValueEifPv
0x00078908	10	_ZThn12_N20AmplifiRemoteManager12tunerEngagedEbbPv
0x00097474	7	_ZThn4_N13ISerializable13WriteToStreamER9OutStream
0x000cf56c	10	_ZThn4_N18A36EditorLibrarian18handleNotificationERK8L6StringRK9L6VariantPv
0x000cf532	10	_ZThn4_N18A36EditorLibrarianD0Ev
0x000cf356	10	_ZThn4_N18A36EditorLibrarianD1Ev
0x00076fd8	10	_ZThn4_N20AmplifiRemoteManager29handleL6DeviceLibNotificationEjRK8L6StringRK9L6VariantPv
0x0009dee4	10	_ZThn4_N5L6UUE12UpdateDevice18GetUpdateInterfaceEj
0x0009ddcd	10	_ZThn4_N5L6UUE12UpdateDevice23QueryUpdateProtocolInfoERNS_12ProtocolInfoE
0x000cfe92	10	_ZThn8_N18A36EditorLibrarian13onThreadEventEjiiPv
0x000cf528	10	_ZThn8_N18A36EditorLibrarianD0Ev
0x000cf34c	10	_ZThn8_N18A36EditorLibrarianD1Ev
0x00076b0a	10	_ZThn8_N20AmplifiRemoteManager23ConsumeSppOutStreamDataEPhi
0x0007434a	10	_ZThn8_N20AmplifiRemoteManagerD0Ev
0x00074095	10	_ZThn8_N20AmplifiRemoteManagerD1Ev
0x000e60b9	10	_ZThn92_N11L6A36Preset11HandleAssetEj
0x000e6da3	10	_ZThn92_N11L6A36Preset11HandlePSKeyEjP10TypedValue
0x000e8ebf	10	_ZThn92_N11L6A36Preset13HandleSlotEndEj
0x000e8b3a	10	_ZThn92_N11L6A36Preset15HandleSlotStartEj
0x000e8ffc	10	_ZThn92_N11L6A36Preset16HandleSectionEndE15PresetSectionIDj
0x000e6604	10	_ZThn92_N11L6A36Preset16HandleStateValueEjP10TypedValue
0x000e8fbc	10	_ZThn92_N11L6A36Preset18HandleSectionStartE15PresetSectionIDj
0x000e35bd	10	_ZThn92_N11L6A36PresetD0Ev
0x000e34f1	10	_ZThn92_N11L6A36PresetD1Ev
0x0016ab20	34	_ZdaPv
0x0016aac0	38	_ZdlPv
0x00071053	5	_ZdlPvS_
0x0016aaf0	38	_ZdlPvj
0x0016c750	52	_Znaj
0x0016c6b0	154	_Znwj
0x0007104b	8	_ZnwjPv
0x00099ea9	399	_ZrMIN5L6UUE12ImageArchive4NodeEER16StreamSerializerS4_RSt4listIPT_SaIS7_EE
0x0009991e	374	_ZrMIN5L6UUE12ImageArchive5ImageEER16StreamSerializerS4_RSt4listIPT_SaIS7_EE
0x00099722	63	_ZrMIN5L6UUE7VersionEER16StreamSerializerS3_RT_
0x000996e3	63	_ZrMIjER16StreamSerializerS1_RT_
0x00099761	333	_ZrMIjjER16StreamSerializerS1_RSt3mapIT_T0_St4lessIS3_ESaISt4pairIKS3_S4_EEE
0x0016af10	342	__cxa_allocate_dependent_exception
0x0016acb0	374	__cxa_allocate_exception
0x0016b170	67	__cxa_bad_cast
0x0016b1c0	67	__cxa_bad_typeid
0x0016b220	150	__cxa_begin_catch
0x0016c100	253	__cxa_call_unexpected
0x00178100	60	__cxa_current_exception_type
0x00177f50	357	__cxa_demangle
0x0016b2c0	167	__cxa_end_catch
0x0016b070	220	__cxa_free_dependent_exception
0x0016ae30	215	__cxa_free_exception
0x0016b210	12	__cxa_get_exception_ptr
0x0016b660	155	__cxa_get_globals
0x0016b610	78	__cxa_get_globals_fast
0x0016c5e0	96	__cxa_guard_abort
0x0016c530	166	__cxa_guard_acquire
0x0016c640	104	__cxa_guard_release
0x0016c8b0	51	__cxa_pure_virtual
0x0016c3e0	99	__cxa_rethrow
0x0016c370	111	__cxa_throw
0x0017b2a7	49	__deregister_frame
0x0017b287	32	__deregister_frame_info
0x0017b1c2	197	__deregister_frame_info_bases
0x0016ab50	281	__dynamic_cast
0x001799f2	189	__frame_state_for
0x0017b5ae	442	__gcc_personality_v0
0x001780c0	55	__gcclibcxx_demangle_callback
0x0016bb80	1407	__gxx_personality_v0
0x0017b0ca	53	__register_frame
0x0017b0a3	39	__register_frame_info
0x0017b02c	119	__register_frame_info_bases
0x0017b16e	39	__register_frame_info_table
0x0017b0ff	111	__register_frame_info_table_bases
0x0017b195	45	__register_frame_table
0x0017813c	261	__udivdi3
0x00178244	272	__umoddi3
